******************************************************************************
                  TI ARM Linker PC v20.2.1                     
******************************************************************************
>> Linked Tue Nov 24 21:17:21 2020

OUTPUT FILE NAME:   <collector_CC1352R1_LAUNCHXL_tirtos_ccs.out>
ENTRY POINT SYMBOL: "ResetISR"  address: 00011b3d


MEMORY CONFIGURATION

         name            origin    length      used     unused   attr    fill
----------------------  --------  ---------  --------  --------  ----  --------
  FLASH                 00000000   0004e000  00016d50  000372b0  R  X
  FLASH_NV              0004e000   00008000  00008000  00000000  RW X
  FLASH_LAST            00056000   00002000  00002000  00000000  R  X
  SRAM                  20000000   00014000  000044ad  0000fb53  RW X


SEGMENT ALLOCATION MAP

run origin  load origin   length   init length attrs members
----------  ----------- ---------- ----------- ----- -------
00000000    00000000    00016d50   00016d50    r-x
  00000000    00000000    0000003c   0000003c    r-- .resetVecs
  0000003c    0000003c    000020c4   000020c4    r-- .const
  00002100    00002100    00014778   00014778    r-x .text.1
  00016878    00016878    000004d8   000004d8    r-- .cinit
0004e000    0004e000    00008000   00000000    rw-
  0004e000    0004e000    00008000   00000000    rw- .TI.bound:flashBuf0
00056000    00056000    00002000   00002000    r-x
  00056000    00056000    00001fa8   00001fa8    r-x .text.2
  00057fa8    00057fa8    00000058   00000058    r-- .ccfg
20000100    20000100    00003e79   00000000    rw-
  20000100    20000100    00000004   00000000    rw- .data:xdcRomConstPtr
  20000104    20000104    00000004   00000000    rw- .data:xdcRomExternFuncPtr
  20000108    20000108    00000004   00000000    rw- .data:xdcRomStatePtr
  2000010c    2000010c    00000010   00000000    rw- .data:RAM_MAC_BASE_ADDR
  20000120    20000120    000028f1   00000000    rw- .data
  20002a18    20002a18    00001561   00000000    rw- .bss
20013aa0    20013aa0    00000560   00000000    rw-
  20013aa0    20013aa0    00000560   00000000    rw- .stack


SECTION ALLOCATION MAP

 output                                  attributes/
section   page    origin      length       input sections
--------  ----  ----------  ----------   ----------------
.const     0    0000003c    000020c4     
                  0000003c    00000568     maclib_secure_cc13x2.a : hmac_rom_init.obj (.const:HMAC_ROM_Flash_JT)
                  000005a4    000003b8     app_pem4f.oem4f (.const:ROM_constStruct)
                  0000095c    00000258     maclib_secure_cc13x2.a : fh_rom_init.obj (.const:FH_ROM_Flash_JT)
                  00000bb4    000001f0     rf_multiMode_cc13x2.aem4f : rf_patch_cpe_prop.c.cc13x2.ccs.o (.const:patchImageProp)
                  00000da4    00000188     <whole-program> (.const:.string)
                  00000f2c    00000101     rtsv7M4_T_le_v4SPD16_eabi.lib : ctype.c.obj (.const:.string:_ctypes_)
                  0000102d    00000100     crc.obj (.const:.string:crc_table$13)
                  0000112d    000000fa     maclib_secure_cc13x2.a : fh_global.obj (.const:FH_stateMatrix)
                  00001227    000000f8     mac_cfg.obj (.const:macPibTbl)
                  0000131f    00000001     ti_drivers_config.obj (.const:aesccmCC26XXHWAttrs)
                  00001320    000000cc     maclib_secure_cc13x2.a : lmac_rom_init.obj (.const:LMAC_ROM_Flash_JT)
                  000013ec    000000ac     ti_radio_config.obj (.const:$O3$$)
                  00001498    0000008c     mac_cfg.obj (.const:FHPIB_defaults)
                  00001524    00000088     mac_cfg.obj (.const:macPibDefaults)
                  000015ac    00000080     drivers_cc13x2.a : Random.oem4f (.const:$P$T0$1)
                  0000162c    00000078     cllc.obj (.const:$O8$$)
                  000016a4    00000072     maclib_secure_cc13x2.a : hmac_global.obj (.const:macAssociatingSt)
                  00001716    00000072                            : hmac_global.obj (.const:macIdleSt)
                  00001788    00000072                            : hmac_global.obj (.const:macPollingSt)
                  000017fa    00000072                            : hmac_global.obj (.const:macScanningSt)
                  0000186c    00000072                            : hmac_global.obj (.const:macStartingSt)
                  000018de    00000002     ti_drivers_config.obj (.const:ButtonHWAttrs)
                  000018e0    0000006c     maclib_secure_cc13x2.a : icall_osal_rom_init.obj (.const:ICALL_OSAL_ROM_Flash_JT)
                  0000194c    0000006c     mac_user_config.obj (.const:macRfDriverTable)
                  000019b8    00000058     mac_cfg.obj (.const:macSecurityPibTbl)
                  00001a10    00000054     drivers_cc13x2.a : PowerCC26X2.oem4f (.const:resourceDB)
                  00001a64    00000050     mac_cfg.obj (.const:macMRFSKStdPhyTable)
                  00001ab4    00000048     app_pem4f.oem4f (.const:.string)
                  00001afc    00000048     app_pem4f.oem4f (.const:ROM_externFuncPtrs)
                  00001b44    00000040     mac_user_config.obj (.const:macCryptoDriverTable)
                  00001b84    00000040     maclib_secure_cc13x2.a : hmac_global.obj (.const:macTimerRolloverValue)
                  00001bc4    00000038     ti_drivers_config.obj (.const:$O1$$)
                  00001bfc    00000038     maclib_secure_cc13x2.a : hmac_global.obj (.const:macCmdIncludeFHIe)
                  00001c34    00000028     drivers_cc13x2.a : NVSCC26XX.oem4f (.const:NVSCC26XX_fxnTable)
                  00001c5c    00000028                      : UARTCC26XX.oem4f (.const:UARTCC26XX_fxnTable)
                  00001c84    00000028     app_pem4f.oem4f (.const:ti_sysbios_heaps_HeapCallback_Module__FXNS__C)
                  00001cac    00000028     ti_drivers_config.obj (.const:uartCC26XXHWAttrs)
                  00001cd4    00000028     app_pem4f.oem4f (.const:xdc_runtime_Startup_sfxnTab__A)
                  00001cfc    00000024     cui.obj (.const:$O10$$)
                  00001d20    00000024     drivers_cc13x2.a : UART.oem4f (.const:UART_defaultParams)
                  00001d44    00000024     app_pem4f.oem4f (.const:ti_sysbios_gates_GateMutexPri_Module__FXNS__C)
                  00001d68    00000020     mac_user_config.obj (.const:$P$T0$1$12)
                  00001d88    00000020     rf_multiMode_cc13x2.aem4f : RFCC26X2_multiMode.c.cc13x2.ccs.o (.const:RF_defaultParams)
                  00001da8    00000020     cllc.obj (.const:keyDeviceList$5)
                  00001dc8    00000020     app_pem4f.oem4f (.const:ti_sysbios_gates_GateMutexPri_Object__DESC__C)
                  00001de8    00000020     app_pem4f.oem4f (.const:ti_sysbios_heaps_HeapCallback_Object__DESC__C)
                  00001e08    0000001c     CC1352R1_LAUNCHXL_fxns.obj (.const:$O1$$)
                  00001e24    0000001c     app_pem4f.oem4f (.const:ti_sysbios_heaps_HeapCallback_Object__PARAMS__C)
                  00001e40    00000018     csf.obj (.const:$O6$$)
                  00001e58    00000018     drivers_cc13x2.a : PWM.oem4f (.const:PWM_defaultParams)
                  00001e70    00000018                      : GPIOCC26XX.oem4f (.const:interruptType)
                  00001e88    00000018     maclib_secure_cc13x2.a : hmac_global.obj (.const:macSendMsgBufSize)
                  00001ea0    00000018     app_pem4f.oem4f (.const:ti_sysbios_gates_GateMutexPri_Object__PARAMS__C)
                  00001eb8    00000014     ti_drivers_config.obj (.const:GPIOCC26XX_config)
                  00001ecc    00000014     ti_drivers_config.obj (.const:PowerCC26X2_config)
                  00001ee0    00000014     drivers_cc13x2.a : UARTCC26XX.oem4f (.const:parityType)
                  00001ef4    00000014     app_pem4f.oem4f (.const:xdc_runtime_Startup_sfxnRts__A)
                  00001f08    00000013     macTask.obj (.const:.string:msacbackSizeTable)
                  00001f1b    00000011     ti_drivers_config.obj (.const)
                  00001f2c    00000010     drivers_cc13x2.a : AESCCM.oem4f (.const:AESCCM_defaultParams)
                  00001f3c    00000010     ti_drivers_config.obj (.const:Button_config)
                  00001f4c    00000010     drivers_cc13x2.a : Button.oem4f (.const:Button_defaultParams)
                  00001f5c    00000010     ti_drivers_config.obj (.const:LED_config)
                  00001f6c    00000010     drivers_cc13x2.a : TRNG.oem4f (.const:TRNG_defaultParams)
                  00001f7c    00000010                      : UARTCC26XX.oem4f (.const:dataLength)
                  00001f8c    00000010     maclib_secure_cc13x2.a : hmac_global.obj (.const:macIEEEPhyTable)
                  00001f9c    00000010     drivers_cc13x2.a : GPIOCC26XX.oem4f (.const:outPinTypes)
                  00001fac    0000000e     maclib_secure_cc13x2.a : hmac_global.obj (.const:.string:macCmdBufSize)
                  00001fba    0000000e                            : hmac_global.obj (.const:.string:macTxFrameFailed)
                  00001fc8    0000000e                            : hmac_global.obj (.const:.string:macTxFrameSuccess)
                  00001fd6    00000002     cllc.obj (.const:keyUsageList$5)
                  00001fd8    0000000c     drivers_cc13x2.a : Random.oem4f (.const:$P$T1$2)
                  00001fe4    0000000c     maclib_secure_cc13x2.a : hmac_global.obj (.const:.string:macCbackEventTbl)
                  00001ff0    0000000c                            : hmac_global.obj (.const:.string:macSendMsgDataSize)
                  00001ffc    0000000c     ti_drivers_config.obj (.const:NVS_config)
                  00002008    0000000c     ti_drivers_config.obj (.const:RFCC26XX_hwAttrs)
                  00002014    0000000c     ti_drivers_config.obj (.const:UART_config)
                  00002020    0000000c     drivers_cc13x2.a : GPIOCC26XX.oem4f (.const:inPinTypes)
                  0000202c    0000000c                      : GPIOCC26XX.oem4f (.const:outPinStrengths)
                  00002038    0000000c     app_pem4f.oem4f (.const:xdc_runtime_Startup_firstFxns__A)
                  00002044    00000009     maclib_secure_cc13x2.a : hmac_global.obj (.const:.string:macCmdLen)
                  0000204d    00000001     app_pem4f.oem4f (.const:xdc_runtime_Text_charTab__A)
                  0000204e    00000002     --HOLE-- [fill = 0]
                  00002050    00000008     maclib_secure_cc13x2.a : mac_rx.obj (.const:$O21$$)
                  00002058    00000008     driverlib.lib : aux_sysif.obj (.const:$O29$$)
                  00002060    00000008     main.obj (.const:.string:dummyExtAddr$7)
                  00002068    00000008     maclib_secure_cc13x2.a : fh_global.obj (.const:.string:fhSupFrameTypes)
                  00002070    00000008                            : hmac_global.obj (.const:.string:macAuthTagLen)
                  00002078    00000008     ti_drivers_config.obj (.const:AESCCM_config)
                  00002080    00000008     drivers_cc13x2.a : LED.oem4f (.const:LED_defaultParams)
                  00002088    00000008     ti_drivers_config.obj (.const:PINCC26XX_hwAttrs)
                  00002090    00000008     rf_multiMode_cc13x2.aem4f : RFCC26X2_multiMode.c.cc13x2.ccs.o (.const:RFCC26XX_schedulerPolicy)
                  00002098    00000008     ti_drivers_config.obj (.const:nvsCC26XXHWAttrs)
                  000020a0    00000008     drivers_cc13x2.a : UARTCC26XX.oem4f (.const:stopBits)
                  000020a8    00000008     app_pem4f.oem4f (.const:ti_sysbios_family_arm_m3_Hwi_excHookFuncs__A)
                  000020b0    00000006     drivers_cc13x2.a : UARTCC26XX.oem4f (.const:.string:rxFifoBytes)
                  000020b6    00000006                      : UARTCC26XX.oem4f (.const:.string:rxFifoThreshold)
                  000020bc    00000006                      : UARTCC26XX.oem4f (.const:.string:txFifoBytes)
                  000020c2    00000006                      : UARTCC26XX.oem4f (.const:.string:txFifoThreshold)
                  000020c8    00000004     maclib_secure_cc13x2.a : hmac_global.obj (.const:.string:macKeySourceLen)
                  000020cc    00000004     ti_drivers_config.obj (.const:LEDHWAttrs)
                  000020d0    00000004     drivers_cc13x2.a : NVS.oem4f (.const:NVS_defaultParams)
                  000020d4    00000004     app_pem4f.oem4f (.const:ti_sysbios_gates_GateMutexPri_Instance_State_pendQ__O)
                  000020d8    00000004     app_pem4f.oem4f (.const:ti_sysbios_heaps_HeapCallback_Object__count__C)
                  000020dc    00000004     app_pem4f.oem4f (.const:ti_sysbios_heaps_HeapCallback_allocInstFxn__C)
                  000020e0    00000004     app_pem4f.oem4f (.const:ti_sysbios_heaps_HeapCallback_createInstFxn__C)
                  000020e4    00000004     app_pem4f.oem4f (.const:ti_sysbios_heaps_HeapCallback_deleteInstFxn__C)
                  000020e8    00000004     app_pem4f.oem4f (.const:ti_sysbios_heaps_HeapCallback_freeInstFxn__C)
                  000020ec    00000004     app_pem4f.oem4f (.const:ti_sysbios_heaps_HeapCallback_getStatsInstFxn__C)
                  000020f0    00000004     app_pem4f.oem4f (.const:ti_sysbios_heaps_HeapCallback_initInstFxn__C)
                  000020f4    00000004     app_pem4f.oem4f (.const:ti_sysbios_heaps_HeapCallback_isBlockingInstFxn__C)
                  000020f8    00000004     app_pem4f.oem4f (.const:ti_sysbios_knl_Clock_tickPeriod__C)
                  000020fc    00000004     app_pem4f.oem4f (.const:ti_sysbios_knl_Idle_funcList__A)

.cinit     0    00016878    000004d8     
                  00016878    0000046f     (.cinit..data.load) [load image, compression = lzss]
                  00016ce7    00000001     --HOLE-- [fill = 0]
                  00016ce8    0000000c     (__TI_handler_table)
                  00016cf4    00000004     --HOLE-- [fill = 0]
                  00016cf8    00000008     (.cinit..bss.load) [load image, compression = zero_init]
                  00016d00    00000008     (.cinit..data:RAM_MAC_BASE_ADDR.load) [load image, compression = zero_init]
                  00016d08    00000008     (.cinit..data:xdcRomConstPtr.load) [load image, compression = lzss]
                  00016d10    00000008     (.cinit..data:xdcRomExternFuncPtr.load) [load image, compression = lzss]
                  00016d18    00000008     (.cinit..data:xdcRomStatePtr.load) [load image, compression = lzss]
                  00016d20    00000030     (__TI_cinit_table)

.init_array 
*          0    00000000    00000000     UNINITIALIZED

.TI.bound:flashBuf0 
*          0    0004e000    00008000     UNINITIALIZED
                  0004e000    00008000     ti_drivers_config.obj (.TI.bound:flashBuf0)

.ccfg      0    00057fa8    00000058     
                  00057fa8    00000058     ti_devices_config.obj (.ccfg:retain)

.data:xdcRomConstPtr 
*          0    20000100    00000004     UNINITIALIZED
                  20000100    00000004     app_pem4f.oem4f (.data:xdcRomConstPtr)

.data:xdcRomExternFuncPtr 
*          0    20000104    00000004     UNINITIALIZED
                  20000104    00000004     app_pem4f.oem4f (.data:xdcRomExternFuncPtr)

.data:xdcRomStatePtr 
*          0    20000108    00000004     UNINITIALIZED
                  20000108    00000004     app_pem4f.oem4f (.data:xdcRomStatePtr)

.data      0    20000120    000028f1     UNINITIALIZED
                  20000120    000008c4     macTask.obj (.data:$O13$$)
                  200009e4    000006c4     main.obj (.data:$O11$$)
                  200010a8    00000504     cui.obj (.data:$O9$$)
                  200015ac    00000338     cllc.obj (.data:$O7$$)
                  200018e4    000001b4     csf.obj (.data:$O5$$)
                  20001a98    000001b0     mac_settings.obj (.data:$O14$$)
                  20001c48    0000018c     maclib_osal_tirtos_cc13x2_26x2.a : osal_port.obj (.data:$O25$$)
                  20001dd4    00000170     drivers_cc13x2.a : PowerCC26X2.oem4f (.data:PowerCC26X2_module)
                  20001f44    0000010c     app_pem4f.oem4f (.data:ROM_stateStruct)
                  20002050    000000c4     collector.obj (.data:$O4$$)
                  20002114    00000004     maclib_secure_cc13x2.a : mac_autopend.obj (.data:$O18$$)
                  20002118    000000a8                            : mac.obj (.data:$O17$$)
                  200021c0    000000a0     mac_cfg.obj (.data:macMRFSKGenPhyTable)
                  20002260    00000078     nvocmp.obj (.data:$O15$$)
                  200022d8    00000074     ti_radio_config.obj (.data:$O2$$)
                  2000234c    0000006c     maclib_secure_cc13x2.a : hmac_global.obj (.data:fhObject)
                  200023b8    00000058     csf.obj (.data:appSubMenu)
                  20002410    00000054     maclib_secure_cc13x2.a : fh_global.obj (.data:FHIE_channelPlan)
                  20002464    0000004c     app_pem4f.oem4f (.data:ti_sysbios_knl_Task_Object__table__V)
                  200024b0    00000048     app_pem4f.oem4f (.data:ti_sysbios_family_arm_cc26xx_Timer_Object__table__V)
                  200024f8    00000040     maclib_secure_cc13x2.a : mac_radio.obj (.data:$O19$$)
                  20002538    00000040     csf.obj (.data:commissionSubMenu)
                  20002578    00000040     csf.obj (.data:configureSubMenu)
                  200025b8    00000040     csf.obj (.data:csfMainMenu)
                  200025f8    00000038     app_pem4f.oem4f (.data:ti_sysbios_gates_GateMutex_Object__table__V)
                  20002630    00000034     api_mac.obj (.data:$O12$$)
                  20002664    00000034     maclib_secure_cc13x2.a : hmac_global.obj (.data:macBeaconPayload)
                  20002698    00000030                            : hmac_global.obj (.data)
                  200026c8    00000030     app_pem4f.oem4f (.data:ti_sysbios_knl_Swi_Module_State_0_readyQ__A)
                  200026f8    00000030     app_pem4f.oem4f (.data:ti_sysbios_knl_Swi_Object__table__V)
                  20002728    00000030     app_pem4f.oem4f (.data:ti_sysbios_knl_Task_Module_State_0_readyQ__A)
                  20002758    00000028     maclib_secure_cc13x2.a : mac_symbol_timer.obj (.data:$O22$$)
                  20002780    00000028     ti_radio_config.obj (.data:pOverrides_2gfsk50kbps154g)
                  200027a8    00000024     maclib_secure_cc13x2.a : mac_tx.obj (.data:$O23$$)
                  200027cc    00000024     driverlib.lib : osc.obj (.data:$O27$$)
                  200027f0    00000024     maclib_secure_cc13x2.a : hmac_global.obj (.data:macActionSet)
                  20002814    00000004     drivers_cc13x2.a : GPIOCC26XX.oem4f (.data:gpioPinTable)
                  20002818    00000020                      : TRNGCC26XX.oem4f (.data:entropyPoolBuffer)
                  20002838    00000020     mac_cfg.obj (.data:macBeaconMargin)
                  20002858    00000020     app_pem4f.oem4f (.data:ti_sysbios_knl_Clock_Object__table__V)
                  20002878    00000020     app_pem4f.oem4f (.data:xdc_runtime_Error_IgnoreBlock)
                  20002898    00000018     app_pem4f.oem4f (.data:ti_sysbios_family_arm_m3_Hwi_Object__table__V)
                  200028b0    00000014     maclib_secure_cc13x2.a : mac_radio_tx.obj (.data:$O24$$)
                  200028c4    00000014                            : hmac_global.obj (.data:macStateTbl)
                  200028d8    00000010     maclib_osal_tirtos_cc13x2_26x2.a : osal_port_timers.obj (.data:$O26$$)
                  200028e8    00000010     ti_drivers_config.obj (.data:gpioCallbackFunctions)
                  200028f8    00000010     ti_drivers_config.obj (.data:gpioPinConfigs)
                  20002908    00000010     mac_cfg.obj (.data:macCfg)
                  20002918    0000000f     maclib_secure_cc13x2.a : mac.obj (.data)
                  20002927    00000001     drivers_cc13x2.a : AESCCMCC26XX.oem4f (.data)
                  20002928    0000000c     maclib_secure_cc13x2.a : mac_hl_patch.obj (.data:$O16$$)
                  20002934    0000000c                            : fh_global.obj (.data:FH_FSM)
                  20002940    0000000c     app_pem4f.oem4f (.data:ti_sysbios_heaps_HeapCallback_Object__table__V)
                  2000294c    00000008     rtsv7M4_T_le_v4SPD16_eabi.lib : _lock.c.obj (.data:$O30$$)
                  20002954    00000008     maclib_secure_cc13x2.a : fh_global.obj (.data:FH_txTiming)
                  2000295c    00000008     drivers_cc13x2.a : PINCC26XX.oem4f (.data)
                  20002964    00000008                      : TRNGCC26XX.oem4f (.data:jobList)
                  2000296c    00000008     app_pem4f.oem4f (.data:ti_sysbios_family_arm_m3_Hwi_Module__root__V)
                  20002974    00000008     app_pem4f.oem4f (.data:ti_sysbios_gates_GateHwi_Module__root__V)
                  2000297c    00000008     app_pem4f.oem4f (.data:ti_sysbios_gates_GateMutexPri_Module__root__V)
                  20002984    00000008     app_pem4f.oem4f (.data:ti_sysbios_gates_GateMutex_Module__root__V)
                  2000298c    00000008     app_pem4f.oem4f (.data:ti_sysbios_hal_Hwi_Module__root__V)
                  20002994    00000008     app_pem4f.oem4f (.data:ti_sysbios_heaps_HeapCallback_Module__root__V)
                  2000299c    00000008     app_pem4f.oem4f (.data:ti_sysbios_heaps_HeapMem_Module__root__V)
                  200029a4    00000008     app_pem4f.oem4f (.data:ti_sysbios_knl_Clock_Module__root__V)
                  200029ac    00000008     app_pem4f.oem4f (.data:ti_sysbios_knl_Event_Module__root__V)
                  200029b4    00000008     app_pem4f.oem4f (.data:ti_sysbios_knl_Mailbox_Module__root__V)
                  200029bc    00000008     app_pem4f.oem4f (.data:ti_sysbios_knl_Queue_Module__root__V)
                  200029c4    00000008     app_pem4f.oem4f (.data:ti_sysbios_knl_Semaphore_Module__root__V)
                  200029cc    00000008     app_pem4f.oem4f (.data:ti_sysbios_knl_Swi_Module__root__V)
                  200029d4    00000008     app_pem4f.oem4f (.data:ti_sysbios_knl_Task_Module__root__V)
                  200029dc    00000005     drivers_cc13x2.a : GPIOCC26XX.oem4f (.data)
                  200029e1    00000001                      : NVS.oem4f (.data)
                  200029e2    00000005                      : TemperatureCC26X2.oem4f (.data)
                  200029e7    00000004     maclib_secure_cc13x2.a : fh_global.obj (.data:macAddrSize)
                  200029eb    00000001     drivers_cc13x2.a : PWM.oem4f (.data)
                  200029ec    00000004     maclib_osal_tirtos_cc13x2_26x2.a : osal_port.obj (.data)
                  200029f0    00000004     maclib_secure_cc13x2.a : lmac_global.obj (.data)
                  200029f4    00000004     rtsv7M4_T_le_v4SPD16_eabi.lib : errno.c.obj (.data)
                  200029f8    00000004                                   : stkdepth_vars.c.obj (.data)
                  200029fc    00000004     app_pem4f.oem4f (.data:ti_sysbios_family_arm_m3_Hwi_Module_State_0_excContext__A)
                  20002a00    00000004     app_pem4f.oem4f (.data:ti_sysbios_family_arm_m3_Hwi_Module_State_0_excStack__A)
                  20002a04    00000004     app_pem4f.oem4f (.data:ti_sysbios_knl_Task_Module_State_0_idleTask__A)
                  20002a08    00000002     drivers_cc13x2.a : CryptoResourceCC26XX.oem4f (.data)
                  20002a0a    00000002                      : TRNGCC26XX.oem4f (.data)
                  20002a0c    00000002     app_pem4f.oem4f (.data:ti_sysbios_family_arm_m3_Hwi_Module_State_0_excActive__A)
                  20002a0e    00000001     drivers_cc13x2.a : UART.oem4f (.data)
                  20002a0f    00000001     maclib_secure_cc13x2.a : mac_sleep.obj (.data)
                  20002a10    00000001     rf_multiMode_cc13x2.aem4f : rf_patch_cpe_prop.c.cc13x2.ccs.o (.data)

.bss       0    20002a18    00001561     UNINITIALIZED
                  20002a18    000004f0     rf_multiMode_cc13x2.aem4f : RFCC26X2_multiMode.c.cc13x2.ccs.o (.bss:$O1$$)
                  20002f08    00000200     app_pem4f.oem4f (.bss:taskStackSection)
                  20003108    000001b4     (.common:uartCC26XXObjects)
                  200032bc    000000fc     (.common:enhancedAckBuf)
                  200033b8    000000f8     maclib_secure_cc13x2.a : mac_radio.obj (.bss:RF_object$20)
                  200034b0    000000d8     (.common:ti_sysbios_family_arm_m3_Hwi_dispatchTable)
                  20003588    000000b8     (.common:LEDObjects)
                  20003640    0000008c     (.common:FHPIB_db)
                  200036cc    00000088     (.common:FH_hnd)
                  20003754    00000088     (.common:macPib)
                  200037dc    0000007c     (.common:pinHandleTable)
                  20003858    0000007a     (.common:FHNT_tableOpt)
                  200038d2    00000001                            : mac_tx.obj (.bss)
                  200038d3    00000001     rf_multiMode_cc13x2.aem4f : RFCC26X2_multiMode.c.cc13x2.ccs.o (.bss)
                  200038d4    00000054     (.common:macScan)
                  20003928    00000050     drivers_cc13x2.a : PINCC26XX.oem4f (.bss:pinSemaphore)
                  20003978    00000050     (.common:ButtonObjects)
                  200039c8    00000050     (.common:CryptoResourceCC26XX_accessSemaphore)
                  20003a18    00000050     (.common:CryptoResourceCC26XX_operationSemaphore)
                  20003a68    0000004c     (.common:cuiMultiMenuData)
                  20003ab4    00000042     (.common:FHFSM_Dbg)
                  20003af6    00000001     (.common:driverlib_release_0_58048)
                  20003af7    00000001     (.common:macMgmt)
                  20003af8    00000040     (.common:macSecurityPib)
                  20003b38    0000003c     (.common:macBeaconCoord)
                  20003b74    00000038     (.common:FHNT_hnd)
                  20003bac    00000038     (.common:macDeviceAction1)
                  20003be4    00000034                      : PINCC26XX.oem4f (.bss:pinSwi)
                  20003c18    00000034     (.common:macBeaconDevice)
                  20003c4c    00000030     (.common:macMgmtAction1)
                  20003c7c    0000002c     (.common:macCoord)
                  20003ca8    0000002c     (.common:macDevice)
                  20003cd4    00000028     maclib_secure_cc13x2.a : mac_rx.obj (.bss:$O20$$)
                  20003cfc    00000020     drivers_cc13x2.a : GPIOCC26XX.oem4f (.bss:gpioCallbackInfo)
                  20003d1c    00000020                      : PINCC26XX.oem4f (.bss:pinGpioConfigTable)
                  20003d3c    00000020     ti_drivers_config.obj (.bss:uartCC26XXRingBuffer0)
                  20003d5c    00000020     (.common:macBeacon)
                  20003d7c    0000001c     drivers_cc13x2.a : TRNGCC26XX.oem4f (.bss:TRNGCC26XX_hwi)
                  20003d98    0000001c                      : TRNGCC26XX.oem4f (.bss:entropyPool)
                  20003db4    0000001c                      : PINCC26XX.oem4f (.bss:pinHwi)
                  20003dd0    0000001c     (.common:CryptoResourceCC26XX_hwi)
                  20003dec    0000001c     (.common:macCoordAction2)
                  20003e08    0000001c     (.common:macReset)
                  20003e24    00000018     (.common:aesccmCC26XXObjects)
                  20003e3c    00000018     (.common:macScanAction)
                  20003e54    00000014     rf_multiMode_cc13x2.aem4f : RFCC26X2_multiMode.c.cc13x2.ccs.o (.bss:RF_ratSyncCmd)
                  20003e68    00000014     drivers_cc13x2.a : Random.oem4f (.bss:state)
                  20003e7c    00000014     (.common:macDeviceAction2)
                  20003e90    00000014     (.common:macMgmtAction2)
                  20003ea4    00000010     (.common:macBeaconDeviceAction)
                  20003eb4    00000010     (.common:macCoordAction3)
                  20003ec4    00000010     (.common:macData)
                  20003ed4    00000010     (.common:macDataTxDelay)
                  20003ee4    0000000c                      : NVSCC26XX.oem4f (.bss)
                  20003ef0    0000000c                      : GPIOCC26XX.oem4f (.bss:gpioPinState)
                  20003efc    0000000c     (.common:FH_PibTbl)
                  20003f08    0000000c     (.common:macMain)
                  20003f14    00000008                      : GPIOCC26XX.oem4f (.bss)
                  20003f1c    00000008                      : TemperatureCC26X2.oem4f (.bss:notificationList)
                  20003f24    00000008     (.common:FHNT_tempTable)
                  20003f2c    00000008     (.common:macBeaconCoordAction1)
                  20003f34    00000008     (.common:macCoordAction1)
                  20003f3c    00000006     (.common:FHNT_Dbg)
                  20003f42    00000001     (.common:macPanCoordinator)
                  20003f43    00000001     (.common:macPhyChannel)
                  20003f44    00000004                      : PINCC26XX.oem4f (.bss)
                  20003f48    00000004     (.common:AESCCM_handle)
                  20003f4c    00000004     (.common:FH_test_var)
                  20003f50    00000004     (.common:PowerCC26XX_swiKey)
                  20003f54    00000004     (.common:PowerCC26XX_taskKey)
                  20003f58    00000004     (.common:macCryptoDrvTblPtr)
                  20003f5c    00000004     (.common:macRxSymbol)
                  20003f60    00000004     (.common:macTimerActive)
                  20003f64    00000004     (.common:nvsCC26XXObjects)
                  20003f68    00000004     (.common:timerAlignedQ)
                  20003f6c    00000004     (.common:timerUnalignedQ)
                  20003f70    00000001     (.common:macPwr)
                  20003f71    00000001     (.common:macRxActive)
                  20003f72    00000001     (.common:macRxEnableFlags)
                  20003f73    00000001     (.common:macRxOutgoingAckFlag)
                  20003f74    00000001     (.common:macSymbolTimerImpending)
                  20003f75    00000001     (.common:macTaskId)
                  20003f76    00000001     (.common:macTxActive)
                  20003f77    00000001     (.common:macUnitBackoffPeriod)
                  20003f78    00000001     (.common:rxFhRsl)

.vtable    0    20003f79    00000000     UNINITIALIZED

.vtable_ram 
*          0    20003f79    00000000     UNINITIALIZED

vtable_ram 
*          0    20003f79    00000000     UNINITIALIZED

.sysmem    0    20003f79    00000000     UNINITIALIZED

.nonretenvar 
*          0    20003f79    00000000     UNINITIALIZED

.stack     0    20013aa0    00000560     UNINITIALIZED
                  20013aa0    00000560     --HOLE--

.bootVecs 
*          0    00000000    00000008     DSECT
                  00000000    00000008     boot.aem4f : boot.oem4f (.bootVecs)

.resetVecs 
*          0    00000000    0000003c     
                  00000000    0000003c     app_pem4f.oem4f (.resetVecs)

.vecs      0    20000000    000000d8     NOLOAD SECTION
                  20000000    000000d8     app_pem4f.oem4f (.vecs)

xdc.meta   0    00000000    000000fd     COPY SECTION
                  00000000    000000fd     app_pem4f.oem4f (xdc.meta)

xdc.noload 
*          0    00000000    00000000     COPY SECTION

.data:RAM_MAC_BASE_ADDR 
*          0    2000010c    00000010     UNINITIALIZED
                  2000010c    00000010     maclib_secure_cc13x2.a : rom_init_154.obj (.data:RAM_MAC_BASE_ADDR)

.text.1    0    00002100    00014778     
                  00002100    00000434     nvocmp.obj (.text:NVOCMP_initNv$14)
                  00002534    000003f4     mac_user_config.obj (.text:rfSelect)
                  00002928    000003ee     csf.obj (.text:Csf_processEvents)
                  00002d16    00000002     rf_multiMode_cc13x2.aem4f : rfc.c.cc13x2.ccs.o (.text:NOROM_RFCCpePatchReset)
                  00002d18    000003b0     csf.obj (.text:Csf_init)
                  000030c8    000003a4     maclib_secure_cc13x2.a : mac.obj (.text:macRxCb)
                  0000346c    000003a0     collector.obj (.text:processSensorData$3)
                  0000380c    0000036e     api_mac.obj (.text:processIncomingICallMsg$8)
                  00003b7a    00000002     rf_multiMode_cc13x2.aem4f : RFCC26X2_multiMode.c.cc13x2.ccs.o (.text:RF_defaultCallback)
                  00003b7c    00000354     maclib_secure_cc13x2.a : mac_rx.obj (.text:rxPayloadIsr$21)
                  00003ed0    00000310                            : mac_radio_tx.obj (.text:macRadioCsmaTxCb)
                  000041e0    000002c0     nvocmp.obj (.text:NVOCMP_compactPage$14)
                  000044a0    00000294     maclib_secure_cc13x2.a : mac_tx.obj (.text:macTxFrame)
                  00004734    00000280                            : mac_pwr.obj (.text:macPwrVote)
                  000049b4    00000274     nvocmp.obj (.text:NVOCMP_compact$14)
                  00004c28    0000025c     maclib_secure_cc13x2.a : mac_tx.obj (.text:txCsmaPrep$24)
                  00004e84    00000244     collector.obj (.text:dataIndCB$3)
                  000050c8    00000230     csf.obj (.text:setChMaskAction$4)
                  000052f8    0000021c     maclib_secure_cc13x2.a : mac.obj (.text:macSendReceiveCmdIeee)
                  00005514    00000218                            : mac_radio.obj (.text:macRadioInitSubG)
                  0000572c    00000210     rf_multiMode_cc13x2.aem4f : RFCC26X2_multiMode.c.cc13x2.ccs.o (.text:RF_scheduleCmd)
                  0000593c    0000020c     maclib_secure_cc13x2.a : mac.obj (.text:macSendReceiveCmdSubG)
                  00005b48    00000208     nvocmp.obj (.text:NVOCMP_addItem$14)
                  00005d50    00000200     rf_multiMode_cc13x2.aem4f : RFCC26X2_multiMode.c.cc13x2.ccs.o (.text:RF_open)
                  00005f50    000001e0     maclib_secure_cc13x2.a : mac_hl_patch.obj (.text:macWrapperAddKeyInitFCtr)
                  00006130    000001d4     rf_multiMode_cc13x2.aem4f : RFCC26X2_multiMode.c.cc13x2.ccs.o (.text:RF_dispatchNextCmd)
                  00006304    000001cc     drivers_cc13x2.a : PINCC26XX.oem4f (.text:PIN_init)
                  000064d0    000001c8     csf.obj (.text:setNwkKeyAction$4)
                  00006698    000001b4     maclib_secure_cc13x2.a : mac_radio_tx.obj (.text:macRadioTxAck$28)
                  0000684c    000001ac                            : mac_hl_patch.obj (.text:macRxBeaconCritical)
                  000069f8    000001a4                            : mac_hl_patch.obj (.text:macWrapperDeleteKeyAndAssociatedDevices)
                  00006b9c    00000198     drivers_cc13x2.a : PowerCC26X2.oem4f (.text:Power_sleep)
                  00006d34    00000198     maclib_secure_cc13x2.a : mac_hl_patch.obj (.text:macWrapperDeleteDevice)
                  00006ecc    00000190     drivers_cc13x2.a : PowerCC26X2_calibrateRCOSC.oem4f (.text:calibrateRcoscHf1)
                  0000705c    0000018c     maclib_secure_cc13x2.a : mac_hl_patch.obj (.text:macIncomingFrameSecurity)
                  000071e8    0000018c     drivers_cc13x2.a : PowerCC26X2_calibrateRCOSC.oem4f (.text:runCalibrateFsm)
                  00007374    00000188     maclib_secure_cc13x2.a : mac_radio_tx.obj (.text:macRadioTxGoIeee$28)
                  000074fc    00000186     drivers_cc13x2.a : Button.oem4f (.text:Button_clockTimeoutHandler)
                  00007682    00000002     rtsv7M4_T_le_v4SPD16_eabi.lib : _lock.c.obj (.text:_nop)
                  00007684    00000180     csf.obj (.text:setPanIdAction$4)
                  00007804    00000174     drivers_cc13x2.a : PowerCC26X2.oem4f (.text:Power_init)
                  00007978    0000016c     maclib_secure_cc13x2.a : mac_radio_tx.obj (.text:macRadioTxPrepCsmaUnslotted)
                  00007ae4    00000164     drivers_cc13x2.a : UARTCC26XX.oem4f (.text:UARTCC26XX_open)
                  00007c48    00000164     maclib_secure_cc13x2.a : mac_hl_patch.obj (.text:macWrapperDeleteAllDevices)
                  00007dac    00000164                            : mac_tx.obj (.text:txCsmaDelay)
                  00007f10    00000160     driverlib.lib : sys_ctrl.obj (.text:NOROM_SysCtrlStandby)
                  00008070    00000154     nvocmp.obj (.text:NVOCMP_findItem$14)
                  000081c4    00000154     rf_multiMode_cc13x2.aem4f : RFCC26X2_multiMode.c.cc13x2.ccs.o (.text:RF_radioOpDoneCb)
                  00008318    00000154     drivers_cc13x2.a : UARTCC26XX.oem4f (.text:UARTCC26XX_hwiIntFxn)
                  0000846c    00000148     rf_multiMode_cc13x2.aem4f : RFCC26X2_multiMode.c.cc13x2.ccs.o (.text:RF_fsmSetupState)
                  000085b4    00000148     collector.obj (.text:dataCnfCB$3)
                  000086fc    00000148     maclib_secure_cc13x2.a : mac_radio_tx.obj (.text:macRadioLbtTxCb)
                  00008844    00000148     csf.obj (.text:sensorSelectAction$4)
                  0000898c    00000144     csf.obj (.text:updateCollectorStatusLine$4)
                  00008ad0    00000140     drivers_cc13x2.a : AESCCMCC26XX.oem4f (.text:AESCCM_startOperation)
                  00008c10    00000140     rf_multiMode_cc13x2.aem4f : RFCC26X2_multiMode.c.cc13x2.ccs.o (.text:RF_close)
                  00008d50    0000013c                               : RFCC26X2_multiMode.c.cc13x2.ccs.o (.text:RF_ratSetupChannel)
                  00008e8c    0000013a     drivers_cc13x2.a : UARTCC26XX.oem4f (.text:UARTCC26XX_read)
                  00008fc6    00000002                      : PowerCC26X2.oem4f (.text:emptyClockFunc)
                  00008fc8    00000138     cui.obj (.text:CUI_dispMenu$6)
                  00009100    00000138     drivers_cc13x2.a : NVSCC26XX.oem4f (.text:NVSCC26XX_write)
                  00009238    00000138     maclib_secure_cc13x2.a : mac_hl_patch.obj (.text:macBuildDataFrame)
                  00009370    00000134     rf_multiMode_cc13x2.aem4f : RFCC26X2_multiMode.c.cc13x2.ccs.o (.text:RF_abortCmd)
                  000094a4    00000134     collector.obj (.text:generateTrackingRequests$3)
                  000095d8    00000130     cui.obj (.text:CUI_init)
                  00009708    00000130     maclib_secure_cc13x2.a : mac_radio.obj (.text:macRadioInitIeee)
                  00009838    00000130     rtsv7M4_T_le_v4SPD16_eabi.lib : strtol.c.obj (.text:strtol)
                  00009968    00000124     cui.obj (.text:CUI_statusLinePrintf)
                  00009a8c    00000120     csf.obj (.text:Csf_deviceUpdate)
                  00009bac    00000120     drivers_cc13x2.a : PowerCC26X2.oem4f (.text:configureXOSCHF)
                  00009ccc    00000118     maclib_secure_cc13x2.a : mac_low_level.obj (.text:macLowLevelBufferInit)
                  00009de4    00000118                            : mac.obj (.text:macSetupRATChanCompare)
                  00009efc    00000118     csf.obj (.text:sensorSetReportInterval$4)
                  0000a014    00000114     macTask.obj (.text:MAC_CbackEvent)
                  0000a128    00000112     rf_multiMode_cc13x2.aem4f : RFCC26X2_multiMode.c.cc13x2.ccs.o (.text:RF_decodeOverridePointers)
                  0000a23a    00000002     drivers_cc13x2.a : CryptoResourceCC26XX.oem4f (.text:errorSpin)
                  0000a23c    00000110     cui.obj (.text:CUI_menuActionHelp)
                  0000a34c    00000110     drivers_cc13x2.a : GPIOCC26XX.oem4f (.text:GPIO_setConfig)
                  0000a45c    00000110                      : LED.oem4f (.text:LED_open)
                  0000a56c    00000110     rf_multiMode_cc13x2.aem4f : RFCC26X2_multiMode.c.cc13x2.ccs.o (.text:RF_initRadioSetup)
                  0000a67c    00000110     maclib_secure_cc13x2.a : mac_hl_patch.obj (.text:macEdScanISR)
                  0000a78c    00000110                            : mac_hl_patch.obj (.text:macScanNextChan)
                  0000a89c    00000106     app_pem4f.oem4f (.text:xdc_runtime_System_printfExtend__I)
                  0000a9a2    00000002     maclib_secure_cc13x2.a : mac_pwr.obj (.text:macApiPwrOnReq)
                  0000a9a4    00000104     rf_multiMode_cc13x2.aem4f : RFCC26X2_multiMode.c.cc13x2.ccs.o (.text:RF_hwiCpe0Active)
                  0000aaa8    00000100     cui.obj (.text:CUI_statusLineResourceRequest)
                  0000aba8    000000fc     collector.obj (.text:Collector_init)
                  0000aca4    000000fc     maclib_secure_cc13x2.a : mac_hl_patch.obj (.text:macOutgoingFrameKeyDescRetrieval)
                  0000ada0    000000f8     drivers_cc13x2.a : PINCC26XX.oem4f (.text:PINCC26XX_setIoCfg)
                  0000ae98    000000f0     rf_multiMode_cc13x2.aem4f : RFCC26X2_multiMode.c.cc13x2.ccs.o (.text:RF_fsmPowerUpState)
                  0000af88    000000f0     maclib_secure_cc13x2.a : mac_hl_patch.obj (.text:macScanRxCoordRealign)
                  0000b078    000000ec     nvocmp.obj (.text:NVOCMP_cleanPage$14)
                  0000b164    000000e8     drivers_cc13x2.a : Button.oem4f (.text:Button_open)
                  0000b24c    000000e8     cui.obj (.text:CUI_writeString$6)
                  0000b334    000000e8     maclib_secure_cc13x2.a : mac.obj (.text:macSetupReceiveCmd)
                  0000b41c    000000e4                            : mac_hl_patch.obj (.text:macOutgoingFrameSecurity)
                  0000b500    000000e4                            : mac_tx.obj (.text:macTxChannelBusyCallback)
                  0000b5e4    000000e4                            : mac_rx.obj (.text:rxPostRxUpdates$21)
                  0000b6c8    000000e0     collector.obj (.text:Collector_sendConfigRequest)
                  0000b7a8    000000e0     drivers_cc13x2.a : UARTCC26XX.oem4f (.text:UARTCC26XX_write)
                  0000b888    000000dc     maclib_secure_cc13x2.a : mac_hl_patch.obj (.text:macBuildHeaderIes)
                  0000b964    000000d8     rf_multiMode_cc13x2.aem4f : RFCC26X2_multiMode.c.cc13x2.ccs.o (.text:RF_control)
                  0000ba3c    000000d8                               : RFCC26X2_multiMode.c.cc13x2.ccs.o (.text:RF_pendCmd)
                  0000bb14    000000d8     driverlib.lib : setup.obj (.text:TrimAfterColdResetWakeupFromShutDown$47)
                  0000bbec    000000d8     maclib_secure_cc13x2.a : mac_hl_patch.obj (.text:macCcmStarTransform)
                  0000bcc4    000000d8     collector.obj (.text:sendMsg$3)
                  0000bd9c    000000d2     rf_multiMode_cc13x2.aem4f : RFCC26X2_multiMode.c.cc13x2.ccs.o (.text:RF_updatePaConfiguration)
                  0000be6e    00000002     maclib_secure_cc13x2.a : mac_mcu.obj (.text:macMcuBitReverse)
                  0000be70    000000d0     rf_multiMode_cc13x2.aem4f : RFCC26X2_multiMode.c.cc13x2.ccs.o (.text:RF_swiHw)
                  0000bf40    000000cc     maclib_secure_cc13x2.a : mac_timer.obj (.text:macSymbolTimerTriggerCallback)
                  0000c00c    000000c8     dpl_cc13x2.a : PowerCC26X2_tirtos.oem4f (.text:PowerCC26XX_standbyPolicy)
                  0000c0d4    000000c4     cllc.obj (.text:Cllc_removeDevice)
                  0000c198    000000c4     drivers_cc13x2.a : GPIOCC26XX.oem4f (.text:GPIO_init)
                  0000c25c    000000c4     maclib_secure_cc13x2.a : mac_hl_patch.obj (.text:macApiStartReq)
                  0000c320    000000c0     nvocmp.obj (.text:NVOCMP_erase$14)
                  0000c3e0    000000c0     drivers_cc13x2.a : PowerCC26X2.oem4f (.text:Power_releaseDependency)
                  0000c4a0    000000c0                      : UARTCC26XX.oem4f (.text:UARTCC26XX_initIO)
                  0000c560    000000c0     maclib_secure_cc13x2.a : mac_hl_patch.obj (.text:macMgmtReset)
                  0000c620    000000bc                            : mac_hl_patch.obj (.text:macAutoPoll)
                  0000c6dc    000000bc                            : mac.obj (.text:macGetRFCmdDuration)
                  0000c798    000000b8     drivers_cc13x2.a : PowerCC26X2.oem4f (.text:Power_setDependency)
                  0000c850    000000b8                      : UARTCC26XX.oem4f (.text:UARTCC26XX_initHw)
                  0000c908    000000b4     maclib_secure_cc13x2.a : mac_pwr.obj (.text:MAC_PwrOffReq)
                  0000c9bc    000000b4     drivers_cc13x2.a : TRNGCC26XX.oem4f (.text:TRNG_generateEntropy)
                  0000ca70    000000b4     cllc.obj (.text:assocIndCb$5)
                  0000cb24    000000b0     maclib_secure_cc13x2.a : mac_autopend.obj (.text:MAC_SrcMatchAddEntry)
                  0000cbd4    000000b0                            : mac.obj (.text:macStopCmd)
                  0000cc84    000000ac     nvocmp.obj (.text:NVOCMP_readContItemApi$14)
                  0000cd30    000000ac     drivers_cc13x2.a : PINCC26XX.oem4f (.text:PIN_open)
                  0000cddc    000000ac     maclib_secure_cc13x2.a : mac_hl_patch.obj (.text:macApiBeaconStartReq)
                  0000ce88    000000ac                            : mac_hl_patch.obj (.text:macBeaconCheckTxTime)
                  0000cf34    000000ac     macTask.obj (.text:macTaskInit)
                  0000cfe0    000000ac     api_mac.obj (.text:processBeaconNotifyInd$8)
                  0000d08c    000000a8     driverlib.lib : setup.obj (.text:NOROM_SetupTrimDevice)
                  0000d134    000000a8     nvocmp.obj (.text:NVOCMP_initNvApi$14)
                  0000d1dc    000000a8     maclib_secure_cc13x2.a : mac_radio_tx.obj (.text:macRadioTxAckCb$28)
                  0000d284    000000a8                            : mac_hl_patch.obj (.text:macTrackTimeoutCallback)
                  0000d32c    000000a4     rf_multiMode_cc13x2.aem4f : RFCC26X2_multiMode.c.cc13x2.ccs.o (.text:RF_ratRestartChannels)
                  0000d3d0    000000a4     maclib_secure_cc13x2.a : mac_hl_patch.obj (.text:macCcmStarInverseTransform)
                  0000d474    000000a4                            : mac_radio_tx.obj (.text:macRadioTxPrepLbt)
                  0000d518    000000a4                            : mac_radio.obj (.text:macRadioUpdateTxPower)
                  0000d5bc    000000a0     rf_multiMode_cc13x2.aem4f : RFCC26X2_multiMode.c.cc13x2.ccs.o (.text:RF_requestAccess)
                  0000d65c    000000a0     auto_init.aem4f : auto_init.oem4f (.text)
                  0000d6fc    000000a0     maclib_secure_cc13x2.a : mac_hl_patch.obj (.text:macBlacklistChecking)
                  0000d79c    000000a0     rom_sysbios.aem4f : rom_sysbios.obj (.text:ti_sysbios_knl_Task_setPri__E)
                  0000d83c    0000009c     cllc.obj (.text:Cllc_init)
                  0000d8d8    0000009c     nvocmp.obj (.text:NVOCMP_readHeader$14)
                  0000d974    0000009c     maclib_secure_cc13x2.a : mac_radio.obj (.text:macRadioStartScan)
                  0000da10    0000009c                            : mac_timer.obj (.text:macTimerRealign)
                  0000daac    0000009c     rtsv7M4_T_le_v4SPD16_eabi.lib : memcpy_t2.asm.obj (.text)
                  0000db48    0000009c     maclib_secure_cc13x2.a : mac_tx.obj (.text:txComplete)
                  0000dbe4    00000098     nvocmp.obj (.text:NVOCMP_updateItemApi$14)
                  0000dc7c    00000098     rf_multiMode_cc13x2.aem4f : RFCC26X2_multiMode.c.cc13x2.ccs.o (.text:RF_calculateDispatchTime)
                  0000dd14    00000098     drivers_cc13x2.a : UARTCC26XX.oem4f (.text:writeTxFifoFlush)
                  0000ddac    00000096     rtsv7M4_T_le_v4SPD16_eabi.lib : ull_div_t2.asm.obj (.text)
                  0000de42    00000002     maclib_secure_cc13x2.a : mac_radio.obj (.text:macRadioSetRE)
                  0000de44    00000094     csf.obj (.text:Csf_updateFrameCounter)
                  0000ded8    00000094     nvocmp.obj (.text:NVOCMP_getDstPage$14)
                  0000df6c    00000094     rf_multiMode_cc13x2.aem4f : RFCC26X2_multiMode.c.cc13x2.ccs.o (.text:RF_getInfo)
                  0000e000    00000094     drivers_cc13x2.a : TRNGCC26XX.oem4f (.text:TRNGCC26XX_hwiFxn)
                  0000e094    00000094     maclib_secure_cc13x2.a : mac_hl_patch.obj (.text:macIncomingSecurityLevelChecking)
                  0000e128    00000094                            : mac_radio.obj (.text:macRadioUpdateChannel)
                  0000e1bc    00000094                            : mac_radio.obj (.text:macRadioUpdateChannelRx)
                  0000e250    00000094                            : mac.obj (.text:macRatCb_A)
                  0000e2e4    00000094                            : mac.obj (.text:macSetupFsCmd)
                  0000e378    00000092     drivers_cc13x2.a : UARTCC26XX.oem4f (.text:UARTCC26XX_writeCancel)
                  0000e40a    00000002     rtsv7M4_T_le_v4SPD16_eabi.lib : div0.asm.obj (.text)
                  0000e40c    00000090     CC1352R1_LAUNCHXL_fxns.obj (.text:CC1352R1_LAUNCHXL_shutDownExtFlash)
                  0000e49c    00000090     maclib_secure_cc13x2.a : mac_hl_patch.obj (.text:MAC_ResumeReq)
                  0000e52c    00000090     rf_multiMode_cc13x2.aem4f : RFCC26X2_multiMode.c.cc13x2.ccs.o (.text:RF_discardPendCmd)
                  0000e5bc    00000090     maclib_secure_cc13x2.a : mac_hl_patch.obj (.text:macCcmDecrypt)
                  0000e64c    00000090                            : mac_hl_patch.obj (.text:macTrackStartCallback)
                  0000e6dc    0000008c     maclib_osal_tirtos_cc13x2_26x2.a : osal_port.obj (.text:OsalPort_heapMalloc$41)
                  0000e768    0000008c                                      : osal_port.obj (.text:OsalPort_setTimer)
                  0000e7f4    0000008c     api_mac.obj (.text:copyDataInd$8)
                  0000e880    0000008c     maclib_secure_cc13x2.a : mac_hl_patch.obj (.text:macCcmEncrypt)
                  0000e90c    0000008c                            : mac_radio_tx.obj (.text:macRadioTxEnhAckCb)
                  0000e998    0000008c     rom_sysbios.aem4f : rom_sysbios.obj (.text:ti_sysbios_gates_GateMutexPri_enter__E)
                  0000ea24    00000088     maclib_secure_cc13x2.a : mac_autopend.obj (.text:MAC_SrcMatchEnable)
                  0000eaac    00000088     driverlib.lib : osc.obj (.text:NOROM_OSCHF_AttemptToSwitchToXosc)
                  0000eb34    00000088     nvocmp.obj (.text:NVOCMP_deleteItemApi$14)
                  0000ebbc    00000088     rf_multiMode_cc13x2.aem4f : RFCC26X2_multiMode.c.cc13x2.ccs.o (.text:RF_cmdDispatchTime)
                  0000ec44    00000088                               : RFCC26X2_multiMode.c.cc13x2.ccs.o (.text:RF_getTxPower)
                  0000eccc    00000088     drivers_cc13x2.a : PowerCC26X2_calibrateRCOSC.oem4f (.text:calibrateRcoscHf2)
                  0000ed54    00000088                      : PowerCC26X2.oem4f (.text:disableLFClockQualifiers)
                  0000eddc    00000088     maclib_secure_cc13x2.a : mac_hl_patch.obj (.text:macKeyDescriptorLookup)
                  0000ee64    00000088                            : mac_mcu.obj (.text:macMcuOverflowSetPeriod)
                  0000eeec    00000088                            : mac_symbol_timer.obj (.text:macSymbolTimerInit)
                  0000ef74    00000088     drivers_cc13x2.a : PowerCC26X2_calibrateRCOSC.oem4f (.text:updateSubSecInc)
                  0000effc    00000084     api_mac.obj (.text:ApiMac_init)
                  0000f080    00000084     cllc.obj (.text:Cllc_securityInit)
                  0000f104    00000084     nvocmp.obj (.text:NVOCMP_createItemApi$14)
                  0000f188    00000084     rf_multiMode_cc13x2.aem4f : RFCC26X2_multiMode.c.cc13x2.ccs.o (.text:RF_issueRadioFreeCb)
                  0000f20c    00000084                               : RFCC26X2_multiMode.c.cc13x2.ccs.o (.text:RF_verifyGap)
                  0000f290    00000084     drivers_cc13x2.a : UARTCC26XX.oem4f (.text:UARTCC26XX_close)
                  0000f314    00000084     maclib_secure_cc13x2.a : mac_rx_onoff.obj (.text:macRxOffRequest)
                  0000f398    00000084                            : mac_timer.obj (.text:macTimerUpdateSymbolTimer)
                  0000f41c    00000080     drivers_cc13x2.a : NVSCC26XX.oem4f (.text:NVSCC26XX_open)
                  0000f49c    00000080     cllc.obj (.text:beaconNotifyIndCb$5)
                  0000f51c    00000080     maclib_secure_cc13x2.a : mac_mcu.obj (.text:macMcuOverflowSetCompare)
                  0000f59c    00000080                            : mac_radio.obj (.text:macRadioWakeupCb)
                  0000f61c    00000080                            : mac_autopend.obj (.text:macSrcMatchCheckSrcAddr$17)
                  0000f69c    00000080     cllc.obj (.text:scanCnfCb$5)
                  0000f71c    00000080     maclib_secure_cc13x2.a : mac_radio.obj (.text:scheduleNopWakeupCmd)
                  0000f79c    00000080     rom_sysbios.aem4f : rom_sysbios.obj (.text:ti_sysbios_family_arm_cc26xx_Timer_start__E)
                  0000f81c    00000080     maclib_secure_cc13x2.a : mac_tx.obj (.text:txGo$24)
                  0000f89c    0000007c     csf.obj (.text:Csf_getDeviceItem)
                  0000f918    0000007c     nvocmp.obj (.text:NVOCMP_readItemApi$14)
                  0000f994    0000007c     rf_multiMode_cc13x2.aem4f : RFCC26X2_multiMode.c.cc13x2.ccs.o (.text:RF_ratFreeChannel)
                  0000fa10    0000007c     maclib_secure_cc13x2.a : mac_rx_onoff.obj (.text:macRxOn)
                  0000fa8c    0000007c     maclib_osal_tirtos_cc13x2_26x2.a : osal_port.obj (.text:osalHeapInitFxn)
                  0000fb08    0000007a     rtsv7M4_T_le_v4SPD16_eabi.lib : memset_t2.asm.obj (.text)
                  0000fb82    00000002     app_pem4f.oem4f (.text:ti_sysbios_BIOS_nullFunc__I)
                  0000fb84    00000078     cllc.obj (.text:Cllc_restoreNetwork)
                  0000fbfc    00000078     nvocmp.obj (.text:NVOCMP_checkItem$14)
                  0000fc74    00000078     maclib_secure_cc13x2.a : mac_timer.obj (.text:macTimerSetRollover)
                  0000fcec    00000074     csf.obj (.text:Csf_getDevice)
                  0000fd60    00000074     nvocmp.obj (.text:NVOCMP_writeItemApi$14)
                  0000fdd4    00000074     drivers_cc13x2.a : PowerCC26X2_calibrateRCOSC.oem4f (.text:PowerCC26X2_auxISR)
                  0000fe48    00000074     rf_multiMode_cc13x2.aem4f : RFCC26X2_multiMode.c.cc13x2.ccs.o (.text:RF_yield)
                  0000febc    00000074     drivers_cc13x2.a : TRNGCC26XX.oem4f (.text:TRNG_construct)
                  0000ff30    00000074     rom_sysbios.aem4f : rom_sysbios.obj (.text:ti_sysbios_gates_GateMutexPri_leave__E)
                  0000ffa4    00000072     rf_multiMode_cc13x2.aem4f : RFCC26X2_multiMode.c.cc13x2.ccs.o (.text:RF_detachOverrides)
                  00010016    00000002     rom_sysbios.aem4f : rom_sysbios.obj (.text:ti_sysbios_heaps_HeapCallback_defaultDelete)
                  00010018    00000070     drivers_cc13x2.a : AESCCMCC26XX.oem4f (.text:AESCCM_cleanup)
                  00010088    00000070     rf_multiMode_cc13x2.aem4f : rfc.c.cc13x2.ccs.o (.text:NOROM_RFCAnaDivTxOverride)
                  000100f8    00000070     nvocmp.obj (.text:NVOCMP_eraseNvApi$14)
                  00010168    00000070     drivers_cc13x2.a : PINCC26XX.oem4f (.text:PIN_add)
                  000101d8    00000070     rf_multiMode_cc13x2.aem4f : RFCC26X2_multiMode.c.cc13x2.ccs.o (.text:RF_ratDisableChannel)
                  00010248    00000070     drivers_cc13x2.a : Random.oem4f (.text:Random_seedAutomatic)
                  000102b8    00000070     collector.obj (.text:cllcStartedCB$3)
                  00010328    00000070     cllc.obj (.text:sendStartReq$5)
                  00010398    0000006e     rf_multiMode_cc13x2.aem4f : RFCC26X2_multiMode.c.cc13x2.ccs.o (.text:RF_attachOverrides)
                  00010406    0000006e                               : RFCC26X2_multiMode.c.cc13x2.ccs.o (.text:RF_howToSchedule)
                  00010474    0000006e     rtsv7M4_T_le_v4SPD16_eabi.lib : ll_div_t2.asm.obj (.text)
                  000104e2    00000002     rom_sysbios.aem4f : rom_sysbios.obj (.text:xdc_runtime_SysCallback_defaultAbort)
                  000104e4    0000006d                       : rom_sysbios.obj (.text:xdc_runtime_System_formatNum__I)
                  00010551    00000001     --HOLE-- [fill = 0]
                  00010552    00000002                       : rom_sysbios.obj (.text:xdc_runtime_SysCallback_defaultExit)
                  00010554    0000006c     csf.obj (.text:Csf_sendDisassociateMsg)
                  000105c0    0000006c     driverlib.lib : chipinfo.obj (.text:NOROM_ChipInfo_GetChipType)
                  0001062c    0000006c     rf_multiMode_cc13x2.aem4f : RFCC26X2_multiMode.c.cc13x2.ccs.o (.text:RF_getCurrentTime)
                  00010698    0000006c     maclib_secure_cc13x2.a : mac_radio_tx.obj (.text:macRadioTxBackoffBoundary)
                  00010704    0000006c                            : mac_hl_patch.obj (.text:macTrackPeriodCallback)
                  00010770    0000006c                            : mac_tx.obj (.text:macTxDoneCallback)
                  000107dc    0000006c     collector.obj (.text:processIdentifyLedRequest$3)
                  00010848    00000068     csf.obj (.text:Csf_getDeviceExtAdd)
                  000108b0    00000068     driverlib.lib : osc.obj (.text:NOROM_OSCHF_SwitchToRcOscTurnOffXosc)
                  00010918    00000068     nvocmp.obj (.text:NVOCMP_getFreeNvApi$14)
                  00010980    00000068     maclib_osal_tirtos_cc13x2_26x2.a : osal_port.obj (.text:OsalPort_registerTask)
                  000109e8    00000068     rf_multiMode_cc13x2.aem4f : RFCC26X2_multiMode.c.cc13x2.ccs.o (.text:RF_hwiHw)
                  00010a50    00000068     rtsv7M4_T_le_v4SPD16_eabi.lib : copy_decompress_lzss.c.obj (.text:decompress:lzss:__TI_decompress_lzss)
                  00010ab8    00000068     csf.obj (.text:findDeviceListIndex$4)
                  00010b20    00000068     maclib_secure_cc13x2.a : mac_rx.obj (.text:macRxHaltCleanup)
                  00010b88    00000068     cllc.obj (.text:orphanIndCb$5)
                  00010bf0    00000064     drivers_cc13x2.a : AESCCMCC26XX.oem4f (.text:AESCCM_waitForResult)
                  00010c54    00000064                      : Button.oem4f (.text:Button_gpioCallbackFxn)
                  00010cb8    00000064     nvocmp.obj (.text:NVOCMP_findSignature$14)
                  00010d1c    00000064     maclib_osal_tirtos_cc13x2_26x2.a : osal_port.obj (.text:OsalPort_clearEvent)
                  00010d80    00000064                                      : osal_port.obj (.text:OsalPort_pwrmgrTaskState)
                  00010de4    00000064     rf_multiMode_cc13x2.aem4f : RFCC26X2_multiMode.c.cc13x2.ccs.o (.text:RF_dispatchNextEvent)
                  00010e48    00000064     drivers_cc13x2.a : UARTCC26XX.oem4f (.text:UARTCC26XX_control)
                  00010eac    00000064     csf.obj (.text:getTheFirstDevice$4)
                  00010f10    00000064     maclib_secure_cc13x2.a : mac.obj (.text:macRequestBackoff)
                  00010f74    00000064                            : mac_timer.obj (.text:macSymbolTimerRolloverCallback)
                  00010fd8    00000064                            : mac_timer.obj (.text:macTimerAddTimer)
                  0001103c    00000064     main.obj (.text:main)
                  000110a0    00000062     ti_drivers_config.obj (.text:Board_sendExtFlashByte)
                  00011102    00000062     rf_multiMode_cc13x2.aem4f : RFCC26X2_multiMode.c.cc13x2.ccs.o (.text:RF_syncCb)
                  00011164    00000062     drivers_cc13x2.a : UARTCC26XX.oem4f (.text:UARTCC26XX_swiIntFxn)
                  000111c6    00000002     rom_sysbios.aem4f : rom_sysbios.obj (.text:xdc_runtime_SysCallback_defaultFlush)
                  000111c8    00000060     drivers_cc13x2.a : AESCCMCC26XX.oem4f (.text:AESCCM_hwiFxn)
                  00011228    00000060                      : CryptoResourceCC26XX.oem4f (.text:CryptoResourceCC26XX_constructRTOSObjects)
                  00011288    00000060                      : GPIOCC26XX.oem4f (.text:GPIO_write)
                  000112e8    00000060     rf_multiMode_cc13x2.aem4f : RFCC26X2_multiMode.c.cc13x2.ccs.o (.text:RF_applyRfCorePatch)
                  00011348    00000060     drivers_cc13x2.a : TRNGCC26XX.oem4f (.text:TRNGCC26XX_startTrng)
                  000113a8    00000060     maclib_secure_cc13x2.a : mac_radio.obj (.text:macGetRadioTxPowerReg)
                  00011408    00000060                            : mac_timer.obj (.text:macTimerCancel)
                  00011468    00000060                            : mac_timer.obj (.text:macTimerGetNextTimer)
                  000114c8    00000060     collector.obj (.text:orphanIndCb$3)
                  00011528    00000060     collector.obj (.text:processDataRetry$3)
                  00011588    00000060     cllc.obj (.text:sendScanReq$5)
                  000115e8    0000005e     api_mac.obj (.text:convertTxOptions)
                  00011646    00000002     rom_sysbios.aem4f : rom_sysbios.obj (.text:xdc_runtime_SysCallback_defaultPutch)
                  00011648    0000005c     nvocmp.obj (.text:NVOCMP_readItem$14)
                  000116a4    0000005c     maclib_osal_tirtos_cc13x2_26x2.a : osal_port.obj (.text:OsalPort_msgReceive)
                  00011700    0000005c                                      : osal_port.obj (.text:OsalPort_setEvent)
                  0001175c    0000005c     drivers_cc13x2.a : PINCC26XX.oem4f (.text:PIN_remove)
                  000117b8    0000005c                      : NVSCC26XX.oem4f (.text:doErase)
                  00011814    0000005c     maclib_secure_cc13x2.a : mac_hl_patch.obj (.text:macSetDefaultsByPatch)
                  00011870    0000005c     collector.obj (.text:sendBroadcastMsg$3)
                  000118cc    0000005c     drivers_cc13x2.a : UARTCC26XX.oem4f (.text:startTxFifoEmptyClk)
                  00011928    0000005c     app_pem4f.oem4f (.text:xdc_runtime_Startup_getState__I)
                  00011984    00000058     nvocmp.obj (.text:NVOCMP_getItemLenApi$14)
                  000119dc    00000058     drivers_cc13x2.a : PowerCC26X2_calibrateRCOSC.oem4f (.text:PowerCC26X2_initiateCalibration)
                  00011a34    00000058     rf_multiMode_cc13x2.aem4f : RFCC26X2_multiMode.c.cc13x2.ccs.o (.text:RF_TxPowerTable_findValue)
                  00011a8c    00000058                               : RFCC26X2_multiMode.c.cc13x2.ccs.o (.text:RF_hwiCpe0PowerFsm)
                  00011ae4    00000058     drivers_cc13x2.a : TRNGCC26XX.oem4f (.text:TRNG_init)
                  00011b3c    00000058     boot.aem4f : boot.oem4f (.text)
                  00011b94    00000058     maclib_secure_cc13x2.a : mac_radio_tx.obj (.text:macRadioTxRequestTxAck)
                  00011bec    00000056     drivers_cc13x2.a : LED.oem4f (.text:LED_startBlinking)
                  00011c42    00000056     rf_multiMode_cc13x2.aem4f : RFCC26X2_multiMode.c.cc13x2.ccs.o (.text:RF_defaultSubmitPolicy)
                  00011c98    00000054     drivers_cc13x2.a : AESCCMCC26XX.oem4f (.text:AESCCM_construct)
                  00011cec    00000054     cllc.obj (.text:Cllc_addSecDevice)
                  00011d40    00000054     driverlib.lib : prcm.obj (.text:NOROM_PRCMPowerDomainsAllOff)
                  00011d94    00000054     nvocmp.obj (.text:NVOCMP_doNVCRC$14)
                  00011de8    00000054     drivers_cc13x2.a : NVSCC26XX.oem4f (.text:NVSCC26XX_init)
                  00011e3c    00000054     rf_multiMode_cc13x2.aem4f : RFCC26X2_multiMode.c.cc13x2.ccs.o (.text:RF_fsmXOSCState)
                  00011e90    00000054     drivers_cc13x2.a : StructRingBuf.oem4f (.text:StructRingBuf_put)
                  00011ee4    00000054     dpl_cc13x2.a : SwiP_tirtos.oem4f (.text:SwiP_construct)
                  00011f38    00000054     maclib_secure_cc13x2.a : mac_hl_patch.obj (.text:macIncomingKeyUsagePolicyChecking)
                  00011f8c    00000054                            : mac_radio.obj (.text:macRadioSetChannel)
                  00011fe0    00000054                            : mac_radio.obj (.text:macRadioSetChannelRx)
                  00012034    00000054                            : mac_tx.obj (.text:macTxAckReceivedCallback)
                  00012088    00000054     api_mac.obj (.text:processScanCnf$8)
                  000120dc    00000054     csf.obj (.text:sendToggleAndUpdateUser$4)
                  00012130    00000054     collector.obj (.text:sendTrackingRequest$3)
                  00012184    00000050     drivers_cc13x2.a : GPIOCC26XX.oem4f (.text:GPIO_enableInt)
                  000121d4    00000050     nvocmp.obj (.text:NVOCMP_compactNvApi$14)
                  00012224    00000050     drivers_cc13x2.a : TRNGCC26XX.oem4f (.text:TRNGCC26XX_waitForResult)
                  00012274    00000050                      : TemperatureCC26X2.oem4f (.text:degreesToCode)
                  000122c4    00000050     maclib_secure_cc13x2.a : mac_sleep.obj (.text:macCanSleep)
                  00012314    00000050                            : mac_radio.obj (.text:macRadioSetPanCoordinator)
                  00012364    00000050                            : mac_rx_onoff.obj (.text:macRxDisable)
                  000123b4    00000050                            : mac_timer.obj (.text:macTimerStart)
                  00012404    00000050     cllc.obj (.text:maintainAssocTable$5)
                  00012454    0000004c     cui.obj (.text:CUI_updateCursor$6)
                  000124a0    0000004c     driverlib.lib : prcm.obj (.text:NOROM_PRCMPowerDomainsAllOn)
                  000124ec    0000004c     nvocmp.obj (.text:NVOCMP_setItemInactive$14)
                  00012538    0000004c     maclib_osal_tirtos_cc13x2_26x2.a : osal_port.obj (.text:OsalPort_msgSend)
                  00012584    0000004c     rf_multiMode_cc13x2.aem4f : RFCC26X2_multiMode.c.cc13x2.ccs.o (.text:RF_wakeupNotification)
                  000125d0    0000004c     drivers_cc13x2.a : StructRingBuf.oem4f (.text:StructRingBuf_get)
                  0001261c    0000004c                      : UARTCC26XX.oem4f (.text:UARTCC26XX_readCancel)
                  00012668    0000004c     rtsv7M4_T_le_v4SPD16_eabi.lib : atoi.c.obj (.text:atoi)
                  000126b4    0000004c                                   : cpy_tbl.c.obj (.text:copy_in)
                  00012700    0000004c     maclib_secure_cc13x2.a : mac_radio_tx.obj (.text:macRadioTxHandleAck)
                  0001274c    0000004c                            : mac.obj (.text:macSendFsCmd)
                  00012798    0000004c     maclib_osal_tirtos_cc13x2_26x2.a : osal_port.obj (.text:osalHeapGetStatsFxn)
                  000127e4    00000048     ti_drivers_config.obj (.text:Board_wakeUpExtFlash)
                  0001282c    00000048     CC1352R1_LAUNCHXL_fxns.obj (.text:CC1352R1_LAUNCHXL_wakeUpExtFlash)
                  00012874    00000048     csf.obj (.text:Csf_getNumDeviceListEntries)
                  000128bc    00000048     rf_multiMode_cc13x2.aem4f : rfc.c.cc13x2.ccs.o (.text:NOROM_RFCSynthPowerDown)
                  00012904    00000048     nvocmp.obj (.text:NVOCMP_write$14)
                  0001294c    00000048     drivers_cc13x2.a : NVS.oem4f (.text:NVS_open)
                  00012994    00000048                      : PINCC26XX.oem4f (.text:PIN_setOutputEnable)
                  000129dc    00000048                      : PowerCC26X2_calibrateRCOSC.oem4f (.text:PowerCC26X2_RCOSC_clockFunc)
                  00012a24    00000048                      : PowerCC26X2.oem4f (.text:PowerCC26XX_switchXOSC_HF)
                  00012a6c    00000048     cui.obj (.text:UartReadCallback$6)
                  00012ab4    00000048     maclib_osal_tirtos_cc13x2_26x2.a : util_timer.obj (.text:UtilTimer_construct)
                  00012afc    00000048     drivers_cc13x2.a : NVSCC26XX.oem4f (.text:disableFlashCache)
                  00012b44    00000048     csf.obj (.text:formNwkAndUpdateUser$4)
                  00012b8c    00000048     maclib_secure_cc13x2.a : mac_radio.obj (.text:macRadioNeedAdjustPower)
                  00012bd4    00000048                            : mac_radio.obj (.text:macRadioStopScan)
                  00012c1c    00000048                            : mac_timer.obj (.text:macTimerUpdActive)
                  00012c64    00000048     drivers_cc13x2.a : PowerCC26X2.oem4f (.text:switchXOSCHF)
                  00012cac    00000048     csf.obj (.text:uintToString$4)
                  00012cf4    00000048     drivers_cc13x2.a : UARTCC26XX.oem4f (.text:writeFinishedDoCallback)
                  00012d3c    00000046                      : RingBuf.oem4f (.text:RingBuf_put)
                  00012d82    00000046     maclib_secure_cc13x2.a : mac_hl_patch.obj (.text:macDeviceDescriptorLookup)
                  00012dc8    00000044     cllc.obj (.text:Cllc_sendDisassociationRequest)
                  00012e0c    00000044     drivers_cc13x2.a : GPIOCC26XX.oem4f (.text:GPIO_disableInt)
                  00012e50    00000044     maclib_secure_cc13x2.a : mac_timer.obj (.text:MAC_PwrNextTimeout)
                  00012e94    00000044     driverlib.lib : chipinfo.obj (.text:NOROM_ChipInfo_GetHwRevision)
                  00012ed8    00000044     drivers_cc13x2.a : NVSCC26XX.oem4f (.text:NVSCC26XX_read)
                  00012f1c    00000044                      : PINCC26XX.oem4f (.text:PIN_swi)
                  00012f60    00000044                      : PWM.oem4f (.text:PWM_init)
                  00012fa4    00000044                      : UART.oem4f (.text:UART_init)
                  00012fe8    00000044     maclib_secure_cc13x2.a : mac_tx.obj (.text:macTxTimestampCallback)
                  0001302c    00000042     api_mac.obj (.text:copyMacPanDescToApiMacPanDesc$8)
                  0001306e    00000040     dpl_cc13x2.a : ClockP_tirtos.oem4f (.text:ClockP_construct)
                  000130ae    00000002     --HOLE-- [fill = 0]
                  000130b0    00000040                  : ClockP_tirtos.oem4f (.text:ClockP_create)
                  000130f0    00000040     csf.obj (.text:Csf_getNetworkInformation)
                  00013130    00000040     driverlib.lib : osc.obj (.text:NOROM_OSC_HPOSCRelativeFrequencyOffsetGet)
                  00013170    00000040     maclib_osal_tirtos_cc13x2_26x2.a : osal_port.obj (.text:OsalPort_heapFree$41)
                  000131b0    00000040     drivers_cc13x2.a : PWM.oem4f (.text:PWM_open)
                  000131f0    00000040                      : PowerCC26X2.oem4f (.text:PowerCC26XX_isStableXOSC_HF)
                  00013230    00000040                      : Random.oem4f (.text:Random_getNumber)
                  00013270    00000040                      : RingBuf.oem4f (.text:RingBuf_get)
                  000132b0    00000040                      : TRNGCC26XX.oem4f (.text:TRNGCC26XX_copyToClient)
                  000132f0    00000040                      : UART.oem4f (.text:UART_open)
                  00013330    00000040     collector.obj (.text:cllcStateChangedCB$3)
                  00013370    00000040     rf_multiMode_cc13x2.aem4f : rf_patch_cpe_prop.c.cc13x2.ccs.o (.text:configurePropPatch)
                  000133b0    00000040     maclib_secure_cc13x2.a : mac_low_level.obj (.text:macLowLevelYield)
                  000133f0    00000040                            : mac.obj (.text:macRatCb_B)
                  00013430    00000040                            : mac_rx.obj (.text:macRxNokIsr)
                  00013470    00000040                            : mac_autopend.obj (.text:macSrcMatchSetEnableBit$17)
                  000134b0    00000040                            : mac_symbol_timer.obj (.text:macSymbolTimerSetTrigger)
                  000134f0    00000040                            : mac_tx.obj (.text:macTxUpdateIE)
                  00013530    00000040     rtsv7M4_T_le_v4SPD16_eabi.lib : u_divt2.asm.obj (.text)
                  00013570    00000040     drivers_cc13x2.a : TemperatureCC26X2.oem4f (.text:setNextThresholds)
                  000135b0    00000040     rom_sysbios.aem4f : rom_sysbios.obj (.text:ti_sysbios_family_arm_cc26xx_Timer_setThreshold__I)
                  000135f0    00000040                       : rom_sysbios.obj (.text:ti_sysbios_heaps_HeapCallback_Module_startup__E)
                  00013630    0000003e     dpl_cc13x2.a : HwiP_tirtos.oem4f (.text:HwiP_construct)
                  0001366e    0000003e     drivers_cc13x2.a : LED.oem4f (.text:LED_setBrightnessLevel)
                  000136ac    0000003e     maclib_osal_tirtos_cc13x2_26x2.a : osal_port.obj (.text:OsalPort_msgEnqueueMax)
                  000136ea    0000003e     drivers_cc13x2.a : LED.oem4f (.text:clockTimeoutHandler)
                  00013728    0000003c                      : LED.oem4f (.text:LED_setOff)
                  00013764    0000003c     maclib_secure_cc13x2.a : mac_pwr.obj (.text:MAC_PwrOnReq)
                  000137a0    0000003c     nvocmp.obj (.text:NVOCMP_disableCache$14)
                  000137dc    0000003c     drivers_cc13x2.a : PINCC26XX.oem4f (.text:PIN_setInterrupt)
                  00013818    0000003c                      : PINCC26XX.oem4f (.text:PIN_setOutputValue)
                  00013854    0000003c     rf_multiMode_cc13x2.aem4f : RFCC26X2_multiMode.c.cc13x2.ccs.o (.text:RF_cmdGet)
                  00013890    0000003c                               : RFCC26X2_multiMode.c.cc13x2.ccs.o (.text:RF_cmdStoreEvents)
                  000138cc    0000003c     cui.obj (.text:UartWriteCallback$6)
                  00013908    0000003c     drivers_cc13x2.a : NVSCC26XX.oem4f (.text:checkEraseRange)
                  00013944    0000003c     collector.obj (.text:cllcDeviceJoiningCB$3)
                  00013980    0000003c     maclib_secure_cc13x2.a : mac_timer.obj (.text:macTimerRecalcUnaligned)
                  000139bc    0000003c                            : mac_tx.obj (.text:macTxDecrypt)
                  000139f8    0000003c     rom_sysbios.aem4f : rom_sysbios.obj (.text:ti_sysbios_family_arm_m3_Hwi_construct2__E)
                  00013a34    00000038     ti_drivers_config.obj (.text:Board_shutDownExtFlash)
                  00013a6c    00000038     cllc.obj (.text:Cllc_setJoinPermit)
                  00013aa4    00000038     collector.obj (.text:Collector_sendDeviceTypeRequest)
                  00013adc    00000038     collector.obj (.text:Collector_sendToggleLedRequest)
                  00013b14    00000038     nvocmp.obj (.text:NVOCMP_findPage$14)
                  00013b4c    00000038     drivers_cc13x2.a : PINCC26XX.oem4f (.text:PIN_setConfig)
                  00013b84    00000038     rf_multiMode_cc13x2.aem4f : RFCC26X2_multiMode.c.cc13x2.ccs.o (.text:RF_checkCmdFsError)
                  00013bbc    00000038                               : RFCC26X2_multiMode.c.cc13x2.ccs.o (.text:RF_powerConstraintRelease)
                  00013bf4    00000038     collector.obj (.text:findDevice$3)
                  00013c2c    00000038     maclib_secure_cc13x2.a : mac_timer.obj (.text:macTimerAligned)
                  00013c64    00000038                            : mac_timer.obj (.text:macTimerInit)
                  00013c9c    00000038                            : mac_tx.obj (.text:macTxAckNotReceivedCallback)
                  00013cd4    00000038                            : mac_tx.obj (.text:macTxFrameIsr)
                  00013d0c    00000038     drivers_cc13x2.a : PowerCC26X2.oem4f (.text:notify)
                  00013d44    00000038                      : UARTCC26XX.oem4f (.text:readData)
                  00013d7c    00000038     rom_sysbios.aem4f : rom_sysbios.obj (.text:ti_sysbios_family_arm_cc26xx_Timer_getCurrentTick__E)
                  00013db4    00000038     drivers_cc13x2.a : UARTCC26XX.oem4f (.text:writeData)
                  00013dec    00000036     api_mac.obj (.text:ApiMac_convertCapabilityInfo)
                  00013e22    00000036     drivers_cc13x2.a : LED.oem4f (.text:LED_setOn)
                  00013e58    00000036     rom_sysbios.aem4f : rom_sysbios.obj (.text:ti_sysbios_family_arm_cc26xx_Timer_setNextTick__E)
                  00013e8e    00000002     --HOLE-- [fill = 0]
                  00013e90    00000034     csf.obj (.text:Csf_setTrackingClock)
                  00013ec4    00000034     driverlib.lib : sys_ctrl.obj (.text:NOROM_SysCtrlIdle)
                  00013ef8    00000034     nvocmp.obj (.text:NVOCMP_verifyCRC$14)
                  00013f2c    00000034     rf_multiMode_cc13x2.aem4f : RFCC26X2_multiMode.c.cc13x2.ccs.o (.text:RF_runDirectImmediateCmd)
                  00013f60    00000034     maclib_secure_cc13x2.a : mac_hl_patch.obj (.text:macCheckPhyRate)
                  00013f94    00000034                            : mac_low_level.obj (.text:macLowLevelDiags)
                  00013fc8    00000034                            : mac_radio.obj (.text:macRadioSetIEEEAddr)
                  00013ffc    00000034                            : mac.obj (.text:macRatDisableChannelB)
                  00014030    00000034                            : mac_symbol_timer.obj (.text:macSymbolTimerCount)
                  00014064    00000034     drivers_cc13x2.a : UARTCC26XX.oem4f (.text:readData2RingBuf)
                  00014098    00000034     csf.obj (.text:saveNumDeviceListEntries$4)
                  000140cc    00000034     rtsv7M4_T_le_v4SPD16_eabi.lib : strncpy.c.obj (.text:strncpy)
                  00014100    00000034     rom_sysbios.aem4f : rom_sysbios.obj (.text:ti_sysbios_knl_Swi_setPri__E)
                  00014134    00000034     drivers_cc13x2.a : TemperatureCC26X2.oem4f (.text:updateThresholds)
                  00014168    00000032     maclib_osal_tirtos_cc13x2_26x2.a : osal_port.obj (.text:OsalPort_msgExtract)
                  0001419a    00000032     rom_sysbios.aem4f : rom_sysbios.obj (.text:ti_sysbios_gates_GateMutexPri_insertPri__I)
                  000141cc    00000030     cllc.obj (.text:Cllc_getFormingPanId)
                  000141fc    00000030     csf.obj (.text:Csf_setConfigClock)
                  0001422c    00000030     drivers_cc13x2.a : GPIOCC26XX.oem4f (.text:GPIO_hwiIntFxn)
                  0001425c    00000030                      : GPIOCC26XX.oem4f (.text:GPIO_setCallback)
                  0001428c    00000030     nvocmp.obj (.text:NVOCMP_changePageState$14)
                  000142bc    00000030     drivers_cc13x2.a : NVSCC26XX.oem4f (.text:NVSCC26XX_erase)
                  000142ec    00000030                      : PINCC26XX.oem4f (.text:PINCC26XX_setMux)
                  0001431c    00000030                      : PowerCC26X2.oem4f (.text:Power_releaseConstraint)
                  0001434c    00000030                      : PowerCC26X2.oem4f (.text:Power_setConstraint)
                  0001437c    00000030                      : TRNGCC26XX.oem4f (.text:TRNGCC26XX_fillEntropyPool)
                  000143ac    00000030                      : TemperatureCC26X2.oem4f (.text:Temperature_unregisterNotify)
                  000143dc    00000030     collector.obj (.text:getMsduHandle$3)
                  0001440c    00000030     csf.obj (.text:getNumActiveDevices$4)
                  0001443c    00000030     maclib_secure_cc13x2.a : mac_rx_onoff.obj (.text:macRxHardDisable)
                  0001446c    00000030                            : mac_rx_onoff.obj (.text:macRxSoftDisable)
                  0001449c    00000030                            : mac_symbol_timer.obj (.text:macSymbolTimerBCWakeUp)
                  000144cc    00000030                            : mac_symbol_timer.obj (.text:macSymbolTimerICallTimerCback)
                  000144fc    00000030                            : mac_timer.obj (.text:macTimerCheckUnAlignedQ)
                  0001452c    00000030     app_pem4f.oem4f (.text:ti_sysbios_BIOS_atExitFunc__I)
                  0001455c    00000030     app_pem4f.oem4f (.text:ti_sysbios_BIOS_startFunc__I)
                  0001458c    00000030     rom_sysbios.aem4f : rom_sysbios.obj (.text:ti_sysbios_family_arm_cc26xx_Timer_initDevice__I)
                  000145bc    00000030     app_pem4f.oem4f (.text:ti_sysbios_gates_GateMutexPri_Object__create__S)
                  000145ec    00000030     app_pem4f.oem4f (.text:ti_sysbios_gates_GateMutexPri_create)
                  0001461c    00000030     app_pem4f.oem4f (.text:ti_sysbios_heaps_HeapCallback_Object__create__S)
                  0001464c    00000030     rom_sysbios.aem4f : rom_sysbios.obj (.text:ti_sysbios_knl_Clock_getTimeout__E)
                  0001467c    0000002e     csf.obj (.text:Csf_getDeviceShort)
                  000146aa    0000002e     maclib_osal_tirtos_cc13x2_26x2.a : osal_port.obj (.text:OsalPort_msgDequeue)
                  000146d8    0000002e                                      : osal_port.obj (.text:OsalPort_msgEnqueue)
                  00014706    0000002e     rf_multiMode_cc13x2.aem4f : RFCC26X2_multiMode.c.cc13x2.ccs.o (.text:RF_queueEnd)
                  00014734    0000002e     drivers_cc13x2.a : TRNGCC26XX.oem4f (.text:TRNGCC26XX_serviceJob)
                  00014762    0000002e     app_pem4f.oem4f (.text:ti_sysbios_rts_MemAlloc_alloc)
                  00014790    0000002c     drivers_cc13x2.a : NVS.oem4f (.text:NVS_init)
                  000147bc    0000002c     rf_multiMode_cc13x2.aem4f : RFCC26X2_multiMode.c.cc13x2.ccs.o (.text:RF_executeDirectImmediateCmd)
                  000147e8    0000002c     dpl_cc13x2.a : SemaphoreP_tirtos.oem4f (.text:SemaphoreP_constructBinary)
                  00014814    0000002c                  : SemaphoreP_tirtos.oem4f (.text:SemaphoreP_createBinary)
                  00014840    0000002c     drivers_cc13x2.a : TRNGCC26XX.oem4f (.text:TRNGCC26XX_stopTrng)
                  0001486c    0000002c     rf_multiMode_cc13x2.aem4f : rf_patch_cpe_prop.c.cc13x2.ccs.o (.text:applyPropPatch)
                  00014898    0000002c     collector.obj (.text:findDeviceStatusBit$3)
                  000148c4    0000002c     maclib_secure_cc13x2.a : mac_radio.obj (.text:macRadioSetPanID)
                  000148f0    0000002c                            : mac_radio.obj (.text:macRadioSetShortAddr)
                  0001491c    0000002c                            : mac_rx_onoff.obj (.text:macRxSoftEnable)
                  00014948    0000002c                            : mac_symbol_timer.obj (.text:macSymbolTimerSetRollover)
                  00014974    0000002c                            : mac_tx.obj (.text:macTxRequestCsmaRtcDelay)
                  000149a0    0000002c                            : saddr.obj (.text:sAddrCmp)
                  000149cc    0000002c     app_pem4f.oem4f (.text:ti_sysbios_gates_GateMutexPri_Handle__label__S)
                  000149f8    0000002c     app_pem4f.oem4f (.text:ti_sysbios_heaps_HeapCallback_Handle__label__S)
                  00014a24    0000002c     rom_sysbios.aem4f : rom_sysbios.obj (.text:ti_sysbios_knl_Clock_getTicksUntilInterrupt__E)
                  00014a50    0000002a     drivers_cc13x2.a : List.oem4f (.text:List_insert)
                  00014a7a    0000002a     maclib_secure_cc13x2.a : mac_autopend.obj (.text:MAC_SrcMatchDeleteEntry)
                  00014aa4    0000002a     rf_multiMode_cc13x2.aem4f : RFCC26X2_multiMode.c.cc13x2.ccs.o (.text:RF_searchAndReplacePAOverride)
                  00014ace    00000002     --HOLE-- [fill = 0]
                  00014ad0    00000028     cui.obj (.text:CUI_publicAPIChecks$6)
                  00014af8    00000028     drivers_cc13x2.a : GPIOCC26XX.oem4f (.text:GPIO_read)
                  00014b20    00000028     rf_multiMode_cc13x2.aem4f : rfc.c.cc13x2.ccs.o (.text:NOROM_RFCOverrideSearch)
                  00014b48    00000028     nvocmp.obj (.text:NVOCMP_findDstPage$14)
                  00014b70    00000028     nvocmp.obj (.text:NVOCMP_setCompactHdr$14)
                  00014b98    00000028     drivers_cc13x2.a : PowerCC26X2.oem4f (.text:Power_registerNotify)
                  00014bc0    00000028     rf_multiMode_cc13x2.aem4f : RFCC26X2_multiMode.c.cc13x2.ccs.o (.text:RF_calculateDeltaTimeUs)
                  00014be8    00000028     maclib_secure_cc13x2.a : mac_mcu.obj (.text:macMcuInit)
                  00014c10    00000028                            : mac_rx_onoff.obj (.text:macRxEnable)
                  00014c38    00000028                            : mac_tx.obj (.text:macTxAbortIsr)
                  00014c60    00000028     drivers_cc13x2.a : PowerCC26X2.oem4f (.text:oscillatorISR)
                  00014c88    00000028                      : NVSCC26XX.oem4f (.text:restoreFlashCache)
                  00014cb0    00000026                      : List.oem4f (.text:List_put)
                  00014cd6    00000026                      : List.oem4f (.text:List_putHead)
                  00014cfc    00000026                      : List.oem4f (.text:List_remove)
                  00014d22    00000026     rtsv7M4_T_le_v4SPD16_eabi.lib : strncat.c.obj (.text:strncat)
                  00014d48    00000024     driverlib.lib : osc.obj (.text:NOROM_OSCHF_TurnOnXosc)
                  00014d6c    00000024     rf_multiMode_cc13x2.aem4f : rfc.c.cc13x2.ccs.o (.text:NOROM_RFCDoorbellSendTo)
                  00014d90    00000024                               : RFCC26X2_multiMode.c.cc13x2.ccs.o (.text:RF_cmdAlloc)
                  00014db4    00000024                               : RFCC26X2_multiMode.c.cc13x2.ccs.o (.text:RF_invokeGlobalCallback)
                  00014dd8    00000024     cllc.obj (.text:disassocCnfCb$5)
                  00014dfc    00000024     cllc.obj (.text:disassocIndCb$5)
                  00014e20    00000024     drivers_cc13x2.a : PowerCC26X2_calibrateRCOSC.oem4f (.text:getTdcSemaphore)
                  00014e44    00000024     maclib_secure_cc13x2.a : mac_radio.obj (.text:macRadioSelectConfig$20)
                  00014e68    00000024                            : mac_radio.obj (.text:macRadioSwInit)
                  00014e8c    00000024                            : mac.obj (.text:macSetCurrChan$16)
                  00014eb0    00000024                            : mac_symbol_timer.obj (.text:macSymbolTimerPowerDown)
                  00014ed4    00000024                            : mac_timer.obj (.text:macTimer)
                  00014ef8    00000024     rtsv7M4_T_le_v4SPD16_eabi.lib : memcmp.c.obj (.text:memcmp)
                  00014f1c    00000024     collector.obj (.text:processConfigRetry$3)
                  00014f40    00000024     cllc.obj (.text:startCnfCb$5)
                  00014f64    00000024     app_pem4f.oem4f (.text:ti_sysbios_BIOS_registerRTSLock__I)
                  00014f88    00000024     app_pem4f.oem4f (.text:ti_sysbios_BIOS_removeRTSLock__I)
                  00014fac    00000024     rom_sysbios.aem4f : rom_sysbios.obj (.text:ti_sysbios_family_arm_cc26xx_Timer_getMaxTicks__E)
                  00014fd0    00000024     app_pem4f.oem4f (.text:ti_sysbios_gates_GateMutexPri_Object__delete__S)
                  00014ff4    00000024     app_pem4f.oem4f (.text:ti_sysbios_heaps_HeapCallback_Object__delete__S)
                  00015018    00000022     drivers_cc13x2.a : CryptoUtils.oem4f (.text:CryptoUtils_buffersMatch)
                  0001503a    00000022                      : LED.oem4f (.text:LED_stopBlinking)
                  0001505c    00000022                      : List.oem4f (.text:List_get)
                  0001507e    00000022     maclib_osal_tirtos_cc13x2_26x2.a : osal_port.obj (.text:OsalPort_msgAllocate)
                  000150a0    00000022     collector.obj (.text:pollIndCB$3)
                  000150c2    00000022     maclib_secure_cc13x2.a : mac_radio.obj (.text:radioComputeED)
                  000150e4    00000020     ti_drivers_config.obj (.text:Board_init)
                  00015104    00000020     cui.obj (.text:CUI_getClientIndex$6)
                  00015124    00000020     cui.obj (.text:CUI_updateRemLen$6)
                  00015144    00000020     dpl_cc13x2.a : HwiP_tirtos.oem4f (.text:HwiP_setFunc)
                  00015164    00000020     maclib_secure_cc13x2.a : mac_autopend.obj (.text:MAC_SrcMatchAckAllPending)
                  00015184    00000020     nvocmp.obj (.text:NVOCMP_readByte$14)
                  000151a4    00000020     maclib_osal_tirtos_cc13x2_26x2.a : osal_port.obj (.text:OsalPort_memcmp)
                  000151c4    00000020                                      : osal_port.obj (.text:OsalPort_msgDeallocate)
                  000151e4    00000020     drivers_cc13x2.a : PINCC26XX.oem4f (.text:PINCC26XX_setIoCfgMux)
                  00015204    00000020                      : PowerCC26X2.oem4f (.text:Power_unregisterNotify)
                  00015224    00000020     rf_multiMode_cc13x2.aem4f : RFCC26X2_multiMode.c.cc13x2.ccs.o (.text:RF_clkPowerUp)
                  00015244    00000020                               : RFCC26X2_multiMode.c.cc13x2.ccs.o (.text:RF_hwiCpe0ChangePhy)
                  00015264    00000020                               : RFCC26X2_multiMode.c.cc13x2.ccs.o (.text:RF_isStateTransitionAllowed)
                  00015284    00000020                               : RFCC26X2_multiMode.c.cc13x2.ccs.o (.text:RF_ratIsRunning)
                  000152a4    00000020                               : RFCC26X2_multiMode.c.cc13x2.ccs.o (.text:RF_setTxPower)
                  000152c4    00000020     crc.obj (.text:crc_update)
                  000152e4    00000020     maclib_secure_cc13x2.a : mac_radio.obj (.text:macGetRadioState)
                  00015304    00000020                            : mac_rx_onoff.obj (.text:macRxOff)
                  00015324    00000020                            : mac_tx.obj (.text:macTxFrameRetransmit)
                  00015344    00000020     csf.obj (.text:openCloseNwkAndUpdateUser$4)
                  00015364    00000020     csf.obj (.text:processBroadcastTimeoutCallback$4)
                  00015384    00000020     csf.obj (.text:processConfigTimeoutCallback$4)
                  000153a4    00000020     csf.obj (.text:processKeyChangeCallback$4)
                  000153c4    00000020     csf.obj (.text:processTrackingTimeoutCallback$4)
                  000153e4    00000020     drivers_cc13x2.a : TemperatureCC26X2.oem4f (.text:setTempLowerLimit)
                  00015404    00000020                      : TemperatureCC26X2.oem4f (.text:setTempUpperLimit)
                  00015424    00000020                      : UARTCC26XX.oem4f (.text:threadSafeStdbyDisRelease)
                  00015444    00000020                      : UARTCC26XX.oem4f (.text:threadSafeStdbyDisSet)
                  00015464    00000020     app_pem4f.oem4f (.text:ti_sysbios_BIOS_rtsLock__I)
                  00015484    00000020     rom_sysbios.aem4f : rom_sysbios.obj (.text:ti_sysbios_family_arm_cc26xx_Timer_dynamicStub__E)
                  000154a4    0000001e     maclib_osal_tirtos_cc13x2_26x2.a : osal_port.obj (.text:OsalPort_buildUint32)
                  000154c2    0000001e     drivers_cc13x2.a : PINCC26XX.oem4f (.text:PIN_close)
                  000154e0    0000001e                      : PowerCC26X2.oem4f (.text:Power_getTransitionLatency)
                  000154fe    0000001e     maclib_secure_cc13x2.a : mac_hl_patch.obj (.text:macPibIndex)
                  0001551c    0000001e     csf.obj (.text:moveCursorLeft$4)
                  0001553a    0000001e     csf.obj (.text:moveCursorRight$4)
                  00015558    0000001e     drivers_cc13x2.a : Button.oem4f (.text:msToTicks)
                  00015576    0000001e                      : LED.oem4f (.text:msToTicks)
                  00015594    0000001c     cllc.obj (.text:Cllc_findDevice)
                  000155b0    0000001c     cllc.obj (.text:Cllc_securityFill)
                  000155cc    0000001c     cllc.obj (.text:Cllc_setChanMask)
                  000155e8    0000001c     driverlib.lib : chipinfo.obj (.text:NOROM_ChipInfo_GetChipFamily)
                  00015604    0000001c                   : flash.obj (.text:NOROM_FlashProgram)
                  00015620    0000001c                   : flash.obj (.text:NOROM_FlashSectorErase)
                  0001563c    0000001c     nvocmp.obj (.text:NVOCMP_getCompactHdr$14)
                  00015658    0000001c     nvocmp.obj (.text:NVOCMP_writeByte$14)
                  00015674    0000001c     drivers_cc13x2.a : NVSCC26XX.oem4f (.text:NVSCC26XX_getAttrs)
                  00015690    0000001c                      : NVSCC26XX.oem4f (.text:NVSCC26XX_lock)
                  000156ac    0000001c                      : PINCC26XX.oem4f (.text:PIN_hwi)
                  000156c8    0000001c     dpl_cc13x2.a : PowerCC26X2_tirtos.oem4f (.text:PowerCC26XX_schedulerDisable)
                  000156e4    0000001c                  : PowerCC26X2_tirtos.oem4f (.text:PowerCC26XX_schedulerRestore)
                  00015700    0000001c     rf_multiMode_cc13x2.aem4f : RFCC26X2_multiMode.c.cc13x2.ccs.o (.text:RF_ScheduleCmdParams_init)
                  0001571c    0000001c                               : RFCC26X2_multiMode.c.cc13x2.ccs.o (.text:RF_clkInactivityCallback)
                  00015738    0000001c                               : RFCC26X2_multiMode.c.cc13x2.ccs.o (.text:RF_getPAOverrideOffsetAndValue)
                  00015754    0000001c                               : RFCC26X2_multiMode.c.cc13x2.ccs.o (.text:RF_getRssi)
                  00015770    0000001c                               : RFCC26X2_multiMode.c.cc13x2.ccs.o (.text:RF_powerConstraintSet)
                  0001578c    0000001c     cllc.obj (.text:dataIndCb$5)
                  000157a8    0000001c     maclib_secure_cc13x2.a : mac_mcu.obj (.text:macMcuTimerCapture)
                  000157c4    0000001c                            : mac.obj (.text:macNopBackoffTimerExpiry)
                  000157e0    0000001c                            : mac_radio.obj (.text:macRadioEnergyDetectStop)
                  000157fc    0000001c                            : mac_radio.obj (.text:macRadioInit)
                  00015818    0000001c                            : mac_radio_tx.obj (.text:macRadioTxGo)
                  00015834    0000001c                            : mac_rx.obj (.text:macRxAckTxDoneCallback)
                  00015850    0000001c                            : mac_timer.obj (.text:macTimerRemoveTimer)
                  0001586c    0000001c                            : mac_rx.obj (.text:rxDone$21)
                  00015888    0000001c                            : saddr.obj (.text:sAddrExtCmp)
                  000158a4    0000001c     csf.obj (.text:sensorDeviceTypeRequestAction$4)
                  000158c0    0000001c     csf.obj (.text:sensorDisassocAction$4)
                  000158dc    0000001c     csf.obj (.text:sensorLedToggleAction$4)
                  000158f8    0000001c     rom_sysbios.aem4f : rom_sysbios.obj (.text:ti_sysbios_knl_Swi_construct2__E)
                  00015914    0000001a     drivers_cc13x2.a : LED.oem4f (.text:LED_toggle)
                  0001592e    0000001a     maclib_osal_tirtos_cc13x2_26x2.a : osal_port.obj (.text:OsalPort_enterCS)
                  00015948    0000001a     drivers_cc13x2.a : PowerCC26X2.oem4f (.text:PowerCC26XX_calibrate)
                  00015962    0000001a     api_mac.obj (.text:copyApiMacAddrToMacAddr)
                  0001597c    0000001a     maclib_secure_cc13x2.a : mac_hl_patch.obj (.text:macCheckPhyMode)
                  00015996    0000001a                            : mac_mcu.obj (.text:macMcuLongDiv)
                  000159b0    0000001a     rom_sysbios.aem4f : rom_sysbios_config.obj (.text:xdc_runtime_System_snprintf__E)
                  000159ca    00000002     --HOLE-- [fill = 0]
                  000159cc    00000018     driverlib.lib : chipinfo.obj (.text:NOROM_ChipInfo_GetPackageType)
                  000159e4    00000018     nvocmp.obj (.text:NVOCMP_expectCompApi$14)
                  000159fc    00000018     nvocmp.obj (.text:NVOCMP_restoreCache$14)
                  00015a14    00000018     maclib_osal_tirtos_cc13x2_26x2.a : osal_port.obj (.text:OsalPort_msgPush)
                  00015a2c    00000018     drivers_cc13x2.a : PowerCC26X2.oem4f (.text:Power_idleFunc)
                  00015a44    00000018     rf_multiMode_cc13x2.aem4f : RFCC26X2_multiMode.c.cc13x2.ccs.o (.text:RF_cancelCmd)
                  00015a5c    00000018                               : RFCC26X2_multiMode.c.cc13x2.ccs.o (.text:RF_swiFsm)
                  00015a74    00000018     dpl_cc13x2.a : SwiP_tirtos.oem4f (.text:SwiP_setPriority)
                  00015a8c    00000018     drivers_cc13x2.a : TRNGCC26XX.oem4f (.text:TRNGCC26XX_startJob)
                  00015aa4    00000018                      : UART.oem4f (.text:UART_Params_init)
                  00015abc    00000018     rtsv7M4_T_le_v4SPD16_eabi.lib : args_main.c.obj (.text:_args_main)
                  00015ad4    00000018     csf.obj (.text:closeNwkAction$4)
                  00015aec    00000018     collector.obj (.text:commStatusIndCB$3)
                  00015b04    00000018     api_mac.obj (.text:copyMacAddrToApiMacAddr$8)
                  00015b1c    00000018     csf.obj (.text:formNwkAction$4)
                  00015b34    00000018     maclib_secure_cc13x2.a : mac_symbol_timer.obj (.text:macCsmaTimerExpiry)
                  00015b4c    00000018                            : mac_radio.obj (.text:macRadioSetTxPower)
                  00015b64    00000018                            : mac.obj (.text:macRxBackoffTimerExpiry)
                  00015b7c    00000018                            : mac_rx_onoff.obj (.text:macRxOnRequest)
                  00015b94    00000018                            : mac_autopend.obj (.text:macSrcMatchGetEnableBit$17)
                  00015bac    00000018                            : mac_symbol_timer.obj (.text:macSymbolBCTimerPowerUp)
                  00015bc4    00000018                            : mac_symbol_timer.obj (.text:macSymbolTimerRestore)
                  00015bdc    00000018                            : mac_symbol_timer.obj (.text:macSymbolTimerSetTriggerRollover)
                  00015bf4    00000018                            : mac_timer.obj (.text:macTimerSyncRollover)
                  00015c0c    00000018                            : mac.obj (.text:macTxBackoffTimerExpiry)
                  00015c24    00000018                            : mac_hl_patch.obj (.text:macWrapper8ByteUnused)
                  00015c3c    00000018     csf.obj (.text:openNwkAction$4)
                  00015c54    00000018     csf.obj (.text:processMenuUpdate$4)
                  00015c6c    00000018     rtsv7M4_T_le_v4SPD16_eabi.lib : ll_mul_t2.asm.obj (.text)
                  00015c84    00000018     maclib_secure_cc13x2.a : mac_rx.obj (.text:rxDiscardFrame$21)
                  00015c9c    00000018     drivers_cc13x2.a : PowerCC26X2.oem4f (.text:switchToTCXO)
                  00015cb4    00000018     app_pem4f.oem4f (.text:ti_sysbios_BIOS_rtsUnlock__I)
                  00015ccc    00000018     rom_sysbios.aem4f : rom_sysbios.obj (.text:ti_sysbios_gates_GateMutexPri_Instance_init__E)
                  00015ce4    00000018                       : rom_sysbios.obj (.text:ti_sysbios_heaps_HeapCallback_Instance_init__E)
                  00015cfc    00000018                       : rom_sysbios.obj (.text:ti_sysbios_knl_Swi_or__E)
                  00015d14    00000018     maclib_secure_cc13x2.a : mac_tx.obj (.text:txCsmaGo$24)
                  00015d2c    00000018     cllc.obj (.text:updateState$5)
                  00015d44    00000018     rom_sysbios.aem4f : rom_sysbios.obj (.text:xdc_runtime_Error_init__E)
                  00015d5c    00000018     app_pem4f.oem4f (.text:xdc_runtime_Startup_exec__I)
                  00015d74    00000016     maclib_osal_tirtos_cc13x2_26x2.a : osal_port.obj (.text:OsalPort_leaveCS)
                  00015d8a    00000016     rf_multiMode_cc13x2.aem4f : RFCC26X2_multiMode.c.cc13x2.ccs.o (.text:RF_restartClockTimeout)
                  00015da0    00000016     maclib_osal_tirtos_cc13x2_26x2.a : mac_util.obj (.text:Util_clearEvent)
                  00015db6    00000016                                      : mac_util.obj (.text:Util_setEvent)
                  00015dcc    00000016     app_pem4f.oem4f (.text:ti_sysbios_BIOS_exitFunc__I)
                  00015de2    00000016     rom_sysbios.aem4f : rom_sysbios.obj (.text:ti_sysbios_knl_Task_block__E)
                  00015df8    00000014     drivers_cc13x2.a : AESCCMCC26XX.oem4f (.text:AESCCM_init)
                  00015e0c    00000014     cui.obj (.text:CUI_menuActionBack)
                  00015e20    00000014     drivers_cc13x2.a : List.oem4f (.text:List_clearList)
                  00015e34    00000014     macTask.obj (.text:MAC_CbackCheckPending)
                  00015e48    00000014     macTask.obj (.text:MAC_CbackQueryRetransmit)
                  00015e5c    00000014     maclib_secure_cc13x2.a : mac_autopend.obj (.text:MAC_SrcMatchCheckAllPending)
                  00015e70    00000014     rf_multiMode_cc13x2.aem4f : rfc.c.cc13x2.ccs.o (.text:NOROM_RFCCpeIntGetAndClear)
                  00015e84    00000014     drivers_cc13x2.a : PWM.oem4f (.text:PWM_Params_init)
                  00015e98    00000014                      : PowerCC26X2_calibrateRCOSC.oem4f (.text:PowerCC26X2_calibrate)
                  00015eac    00000014     rf_multiMode_cc13x2.aem4f : RFCC26X2_multiMode.c.cc13x2.ccs.o (.text:RF_Params_init)
                  00015ec0    00000014                               : RFCC26X2_multiMode.c.cc13x2.ccs.o (.text:RF_RatConfigCompare_init)
                  00015ed4    00000014                               : RFCC26X2_multiMode.c.cc13x2.ccs.o (.text:RF_dbellSyncOnAck)
                  00015ee8    00000014                               : RFCC26X2_multiMode.c.cc13x2.ccs.o (.text:RF_flushCmd)
                  00015efc    00000014                               : RFCC26X2_multiMode.c.cc13x2.ccs.o (.text:RF_ratCompare)
                  00015f10    00000014                               : RFCC26X2_multiMode.c.cc13x2.ccs.o (.text:RF_ratGetChannel)
                  00015f24    00000014     drivers_cc13x2.a : StructRingBuf.oem4f (.text:StructRingBuf_construct)
                  00015f38    00000014                      : TRNGCC26XX.oem4f (.text:TRNG_close)
                  00015f4c    00000014                      : TemperatureCC26X2.oem4f (.text:Temperature_getTemperature)
                  00015f60    00000014     cllc.obj (.text:commStatusIndCb$5)
                  00015f74    00000014     drivers_cc13x2.a : TemperatureCC26X2.oem4f (.text:enableTempLowerLimit)
                  00015f88    00000014                      : TemperatureCC26X2.oem4f (.text:enableTempUpperLimit)
                  00015f9c    00000014     maclib_secure_cc13x2.a : mac_mcu.obj (.text:macMcuOverflowCapture)
                  00015fb0    00000014                            : saddr.obj (.text:sAddrCpy)
                  00015fc4    00000014                            : saddr.obj (.text:sAddrExtCpy)
                  00015fd8    00000014     cllc.obj (.text:switchState$5)
                  00015fec    00000014     rom_sysbios.aem4f : rom_sysbios.obj (.text:ti_sysbios_family_arm_cc26xx_Timer_getCount64__E)
                  00016000    00000014     app_pem4f.oem4f (.text:ti_sysbios_heaps_HeapCallback_Object__get__S)
                  00016014    00000014     app_pem4f.oem4f (.text:ti_sysbios_knl_Clock_doTick__I)
                  00016028    00000014     drivers_cc13x2.a : Button.oem4f (.text:timediff)
                  0001603c    00000012                      : LED.oem4f (.text:LED_Params_init)
                  0001604e    00000012     rf_multiMode_cc13x2.aem4f : RFCC26X2_multiMode.c.cc13x2.ccs.o (.text:RF_getCmdOp)
                  00016060    00000012     drivers_cc13x2.a : RingBuf.oem4f (.text:RingBuf_construct)
                  00016072    00000012     dpl_cc13x2.a : SemaphoreP_tirtos.oem4f (.text:SemaphoreP_pend)
                  00016084    00000010     drivers_cc13x2.a : AESCCM.oem4f (.text:AESCCM_Params_init)
                  00016094    00000010                      : AESCCM.oem4f (.text:AESCCM_open)
                  000160a4    00000010                      : Button.oem4f (.text:Button_Params_init)
                  000160b4    00000010     cllc.obj (.text:Cllc_getDefaultKey)
                  000160c4    00000010     dpl_cc13x2.a : ClockP_tirtos.oem4f (.text:ClockP_isActive)
                  000160d4    00000010     drivers_cc13x2.a : GPIOCC26XX.oem4f (.text:GPIO_getConfig)
                  000160e4    00000010     dpl_cc13x2.a : HwiP_tirtos.oem4f (.text:HwiP_Params_init)
                  000160f4    00000010     main.obj (.text:Main_assertHandler)
                  00016104    00000010     rf_multiMode_cc13x2.aem4f : rfc.c.cc13x2.ccs.o (.text:NOROM_RFCHwIntGetAndClear)
                  00016114    00000010     drivers_cc13x2.a : PINCC26XX.oem4f (.text:PINCC26XX_getPinCount)
                  00016124    00000010     rf_multiMode_cc13x2.aem4f : RFCC26X2_multiMode.c.cc13x2.ccs.o (.text:RF_dbellSubmitCmdAsync)
                  00016134    00000010                               : RFCC26X2_multiMode.c.cc13x2.ccs.o (.text:RF_isClientOwner)
                  00016144    00000010     dpl_cc13x2.a : SwiP_tirtos.oem4f (.text:SwiP_Params_init)
                  00016154    00000010     maclib_osal_tirtos_cc13x2_26x2.a : util_timer.obj (.text:UtilTimer_isActive)
                  00016164    00000010     rom_sysbios.aem4f : rom_sysbios.obj (.text:ti_sysbios_family_arm_m3_Hwi_post__E)
                  00016174    00000010                       : rom_sysbios.obj (.text:ti_sysbios_gates_GateMutexPri_Instance_finalize__E)
                  00016184    00000010                       : rom_sysbios.obj (.text:ti_sysbios_heaps_HeapCallback_Instance_finalize__E)
                  00016194    00000010                       : rom_sysbios.obj (.text:ti_sysbios_heaps_HeapCallback_alloc__E)
                  000161a4    00000010                       : rom_sysbios.obj (.text:ti_sysbios_heaps_HeapCallback_free__E)
                  000161b4    00000010                       : rom_sysbios.obj (.text:ti_sysbios_heaps_HeapCallback_getStats__E)
                  000161c4    00000010                       : rom_sysbios.obj (.text:ti_sysbios_heaps_HeapCallback_isBlocking__E)
                  000161d4    00000010     maclib_secure_cc13x2.a : mac_tx.obj (.text:txLbtPrep$24)
                  000161e4    00000010     drivers_cc13x2.a : UARTCC26XX.oem4f (.text:uartPostNotify)
                  000161f4    0000000e     api_mac.obj (.text:ApiMac_mlmeSetReqBool)
                  00016202    0000000e     api_mac.obj (.text:ApiMac_mlmeSetReqUint16)
                  00016210    0000000e     api_mac.obj (.text:ApiMac_mlmeSetReqUint8)
                  0001621e    0000000e     drivers_cc13x2.a : CryptoKeyPlaintextCC26XX.oem4f (.text:CryptoKeyPlaintext_initBlankKey)
                  0001622c    0000000e                      : CryptoKeyPlaintextCC26XX.oem4f (.text:CryptoKeyPlaintext_initKey)
                  0001623a    0000000e                      : NVS.oem4f (.text:NVS_write)
                  00016248    0000000e     rf_multiMode_cc13x2.aem4f : RFCC26X2_multiMode.c.cc13x2.ccs.o (.text:RF_getSwitchingTimeInUs)
                  00016256    0000000e     drivers_cc13x2.a : StructRingBuf.oem4f (.text:StructRingBuf_isFull)
                  00016264    0000000e     maclib_osal_tirtos_cc13x2_26x2.a : mac_util.obj (.text:Util_buildUint32)
                  00016272    0000000e     rtsv7M4_T_le_v4SPD16_eabi.lib : copy_decompress_none.c.obj (.text:decompress:none:__TI_decompress_none)
                  00016280    0000000e     rom_sysbios.aem4f : rom_sysbios.obj (.text:ti_sysbios_family_arm_cc26xx_TimestampProvider_get32__E)
                  0001628e    0000000c     drivers_cc13x2.a : AESCCMCC26XX.oem4f (.text:AESCCM_close)
                  0001629a    00000002     --HOLE-- [fill = 0]
                  0001629c    0000000c     cllc.obj (.text:Cllc_getChanMask)
                  000162a8    0000000c     dpl_cc13x2.a : ClockP_tirtos.oem4f (.text:ClockP_delete)
                  000162b4    0000000c                  : ClockP_tirtos.oem4f (.text:ClockP_getSystemTickPeriod)
                  000162c0    0000000c     maclib_secure_cc13x2.a : mac_pwr.obj (.text:MAC_PwrMode)
                  000162cc    0000000c     driverlib.lib : cpu.obj (.text:NOROM_CPUcpsid)
                  000162d8    0000000c                   : cpu.obj (.text:NOROM_CPUcpsie)
                  000162e4    0000000c     nvocmp.obj (.text:NVOCMP_doRAMCRC$14)
                  000162f0    0000000c     drivers_cc13x2.a : NVSCC26XX.oem4f (.text:NVSCC26XX_unlock)
                  000162fc    0000000c     maclib_osal_tirtos_cc13x2_26x2.a : osal_port.obj (.text:OsalPort_clockFunc$41)
                  00016308    0000000c                                      : osal_port.obj (.text:OsalPort_stopTimer)
                  00016314    0000000c     drivers_cc13x2.a : PINCC26XX.oem4f (.text:PIN_registerIntCb)
                  00016320    0000000c                      : PowerCC26X2.oem4f (.text:Power_getConstraintMask)
                  0001632c    0000000c                      : PowerCC26X2.oem4f (.text:Power_getDependencyCount)
                  00016338    0000000c     rf_multiMode_cc13x2.aem4f : RFCC26X2_multiMode.c.cc13x2.ccs.o (.text:RF_powerConstraintGet)
                  00016344    0000000c     dpl_cc13x2.a : SemaphoreP_tirtos.oem4f (.text:SemaphoreP_delete)
                  00016350    0000000c     rtsv7M4_T_le_v4SPD16_eabi.lib : _lock.c.obj (.text:_register_lock)
                  0001635c    0000000c                                   : _lock.c.obj (.text:_register_unlock)
                  00016368    0000000c                                   : copy_zero_init.c.obj (.text:decompress:ZI:__TI_zero_init)
                  00016374    0000000c     maclib_secure_cc13x2.a : mac_low_level.obj (.text:macLowLevelReset)
                  00016380    0000000c                            : mac_low_level.obj (.text:macLowLevelResume)
                  0001638c    0000000c                            : mac_pwr.obj (.text:macPwrReset)
                  00016398    0000000c                            : mac.obj (.text:macRegisterSfdDetect)
                  000163a4    0000000c                            : mac_rx.obj (.text:macRxSequenceNum)
                  000163b0    0000000c     csf.obj (.text:processIdentifyTimeoutCallback$4)
                  000163bc    0000000c     app_pem4f.oem4f (.text:ti_sysbios_gates_GateMutexPri_Params__init__S)
                  000163c8    0000000c     rom_sysbios.aem4f : rom_sysbios.obj (.text:ti_sysbios_knl_Queue_insert__E)
                  000163d4    0000000c                       : rom_sysbios.obj (.text:ti_sysbios_knl_Swi_getTrigger__E)
                  000163e0    0000000a     dpl_cc13x2.a : ClockP_tirtos.oem4f (.text:ClockP_Params_init)
                  000163ea    0000000a     maclib_secure_cc13x2.a : fh_ie_patch.obj (.text:FHIEPATCH_getPieId)
                  000163f4    0000000a     drivers_cc13x2.a : NVS.oem4f (.text:NVS_erase)
                  000163fe    0000000a                      : NVS.oem4f (.text:NVS_getAttrs)
                  00016408    0000000a                      : NVS.oem4f (.text:NVS_read)
                  00016412    0000000a                      : PWM.oem4f (.text:PWM_close)
                  0001641c    0000000a                      : PWM.oem4f (.text:PWM_setDuty)
                  00016426    0000000a                      : PWM.oem4f (.text:PWM_start)
                  00016430    0000000a                      : UART.oem4f (.text:UART_close)
                  0001643a    0000000a                      : UART.oem4f (.text:UART_control)
                  00016444    0000000a                      : UART.oem4f (.text:UART_read)
                  0001644e    0000000a                      : UART.oem4f (.text:UART_readCancel)
                  00016458    0000000a                      : UART.oem4f (.text:UART_write)
                  00016462    0000000a                      : UART.oem4f (.text:UART_writeCancel)
                  0001646c    0000000a     maclib_osal_tirtos_cc13x2_26x2.a : mac_util.obj (.text:Util_copyExtAddr)
                  00016476    0000000a     maclib_secure_cc13x2.a : mac_mcu.obj (.text:macMcuRandomByte)
                  00016480    0000000a     drivers_cc13x2.a : UARTCC26XX.oem4f (.text:readSemCallback)
                  0001648a    00000008                      : AESCCM.oem4f (.text:AESCCM_Operation_init)
                  00016492    00000008     api_mac.obj (.text:ApiMac_mlmeSetReqArray)
                  0001649a    00000008     drivers_cc13x2.a : NVSCC26XX.oem4f (.text:NVSCC26XX_close)
                  000164a2    00000008     rf_multiMode_cc13x2.aem4f : RFCC26X2_multiMode.c.cc13x2.ccs.o (.text:RF_RatConfigOutput_init)
                  000164aa    00000008     drivers_cc13x2.a : UARTCC26XX.oem4f (.text:UARTCC26XX_init)
                  000164b2    00000008     maclib_osal_tirtos_cc13x2_26x2.a : util_timer.obj (.text:UtilTimer_setTimeout)
                  000164ba    00000008                                      : mac_util.obj (.text:Util_breakUint32)
                  000164c2    00000008                                      : mac_util.obj (.text:Util_buildUint16)
                  000164ca    00000002     --HOLE-- [fill = 0]
                  000164cc    00000008     rtsv7M4_T_le_v4SPD16_eabi.lib : errno.c.obj (.text:__aeabi_errno_addr)
                  000164d4    00000008     drivers_cc13x2.a : UARTCC26XX.oem4f (.text:writeSemCallback)
                  000164dc    00000008     app_pem4f.oem4f (.text:xdc_runtime_Text_visitRope__I)
                  000164e4    00000006     drivers_cc13x2.a : AESCCMCC26XX.oem4f (.text:AESCCM_oneStepDecrypt)
                  000164ea    00000006                      : AESCCMCC26XX.oem4f (.text:AESCCM_oneStepEncrypt)
                  000164f0    00000006                      : Button.oem4f (.text:Button_setCallback)
                  000164f6    00000006     cui.obj (.text:CUI_paramsInit)
                  000164fc    00000006     main.obj (.text:Main_excHandler)
                  00016502    00000006     driverlib.lib : cpu.obj (.text:NOROM_CPUdelay)
                  00016508    00000006     drivers_cc13x2.a : NVSCC26XX.oem4f (.text:NVSCC26XX_control)
                  0001650e    00000006     rf_multiMode_cc13x2.aem4f : RFCC26X2_multiMode.c.cc13x2.ccs.o (.text:RF_clkReqAccess)
                  00016514    00000006                               : RFCC26X2_multiMode.c.cc13x2.ccs.o (.text:RF_runDirectCmd)
                  0001651a    00000006                               : RFCC26X2_multiMode.c.cc13x2.ccs.o (.text:RF_runImmediateCmd)
                  00016520    00000006     drivers_cc13x2.a : UARTCC26XX.oem4f (.text:UARTCC26XX_readPolling)
                  00016526    00000006                      : UARTCC26XX.oem4f (.text:UARTCC26XX_writePolling)
                  0001652c    00000006     maclib_osal_tirtos_cc13x2_26x2.a : mac_util.obj (.text:Util_hiUint16)
                  00016532    00000006     main.obj (.text:assertHandler)
                  00016538    00000006     drivers_cc13x2.a : PowerCC26X2.oem4f (.text:delayUs)
                  0001653e    00000006     maclib_secure_cc13x2.a : mac_hl_patch.obj (.text:macTxBackoffHandler)
                  00016544    00000006     maclib_osal_tirtos_cc13x2_26x2.a : osal_port.obj (.text:osalHeapAllocFxn)
                  0001654a    00000006                                      : osal_port.obj (.text:osalHeapFreeFxn)
                  00016550    00000006     rom_sysbios.aem4f : rom_sysbios.obj (.text:ti_sysbios_family_arm_m3_Hwi_setFunc__E)
                  00016556    00000004     api_mac.obj (.text:ApiMac_mcpsDataReq)
                  0001655a    00000004     api_mac.obj (.text:ApiMac_mlmeSetSecurityReqStruct)
                  0001655e    00000004     dpl_cc13x2.a : PowerCC26X2_tirtos.oem4f (.text:CPUwfi)
                  00016562    00000004                  : ClockP_tirtos.oem4f (.text:ClockP_destruct)
                  00016566    00000004                  : ClockP_tirtos.oem4f (.text:ClockP_getCpuFreq)
                  0001656a    00000004                  : ClockP_tirtos.oem4f (.text:ClockP_getTimeout)
                  0001656e    00000004                  : ClockP_tirtos.oem4f (.text:ClockP_setTimeout)
                  00016572    00000004                  : ClockP_tirtos.oem4f (.text:ClockP_start)
                  00016576    00000004                  : ClockP_tirtos.oem4f (.text:ClockP_stop)
                  0001657a    00000004     maclib_secure_cc13x2.a : fh_ie_patch.obj (.text:FHIEPATCH_extractHie)
                  0001657e    00000004                            : fh_ie_patch.obj (.text:FHIEPATCH_extractPie)
                  00016582    00000004                            : fh_ie_patch.obj (.text:FHIEPATCH_genHie)
                  00016586    00000004                            : fh_ie_patch.obj (.text:FHIEPATCH_genPieContent)
                  0001658a    00000004                            : fh_ie_patch.obj (.text:FHIEPATCH_getHieLen)
                  0001658e    00000004                            : fh_ie_patch.obj (.text:FHIEPATCH_getPieContentLen)
                  00016592    00000004                            : fh_ie_patch.obj (.text:FHIEPATCH_parseHie)
                  00016596    00000004                            : fh_ie_patch.obj (.text:FHIEPATCH_parsePie)
                  0001659a    00000004     dpl_cc13x2.a : HwiP_tirtos.oem4f (.text:HwiP_destruct)
                  0001659e    00000004                  : HwiP_tirtos.oem4f (.text:HwiP_disable)
                  000165a2    00000004                  : HwiP_tirtos.oem4f (.text:HwiP_enableInterrupt)
                  000165a6    00000004                  : HwiP_tirtos.oem4f (.text:HwiP_post)
                  000165aa    00000004                  : HwiP_tirtos.oem4f (.text:HwiP_setPriority)
                  000165ae    00000004     rf_multiMode_cc13x2.aem4f : rfc.c.cc13x2.ccs.o (.text:NOROM_RFCOverrideUpdate)
                  000165b2    00000004                               : RFCC26X2_multiMode.c.cc13x2.ccs.o (.text:RF_defaultExecutionPolicy)
                  000165b6    00000004     dpl_cc13x2.a : SemaphoreP_tirtos.oem4f (.text:SemaphoreP_destruct)
                  000165ba    00000004                  : SemaphoreP_tirtos.oem4f (.text:SemaphoreP_post)
                  000165be    00000004                  : SwiP_tirtos.oem4f (.text:SwiP_destruct)
                  000165c2    00000004                  : SwiP_tirtos.oem4f (.text:SwiP_disable)
                  000165c6    00000004                  : SwiP_tirtos.oem4f (.text:SwiP_getTrigger)
                  000165ca    00000004                  : SwiP_tirtos.oem4f (.text:SwiP_or)
                  000165ce    00000004     maclib_osal_tirtos_cc13x2_26x2.a : util_timer.obj (.text:UtilTimer_start)
                  000165d2    00000004                                      : util_timer.obj (.text:UtilTimer_stop)
                  000165d6    00000004                                      : mac_util.obj (.text:Util_loUint16)
                  000165da    00000004     drivers_cc13x2.a : PowerCC26X2.oem4f (.text:configureRFCoreClocks)
                  000165de    00000004     maclib_secure_cc13x2.a : mac_hl_patch.obj (.text:macPibCheckByPatch)
                  000165e2    00000004                            : mac_radio.obj (.text:macRadioComputeLQI)
                  000165e6    00000004                            : mac_radio_tx.obj (.text:macRadioTxBOBoundary)
                  000165ea    00000004                            : mac_hl_patch.obj (.text:macRxBackoffHandler)
                  000165ee    00000004                            : mac_symbol_timer.obj (.text:macSymbolTimerPwrNotify$23)
                  000165f2    00000004     drivers_cc13x2.a : PowerCC26X2.oem4f (.text:nopResourceHandler)
                  000165f6    00000004     maclib_osal_tirtos_cc13x2_26x2.a : osal_port.obj (.text:osalHeapIsBlockingFxn)
                  000165fa    00000004     rom_sysbios.aem4f : rom_sysbios.obj (.text:ti_sysbios_gates_GateMutexPri_query__E)
                  000165fe    00000004                       : rom_sysbios.obj (.text:ti_sysbios_heaps_HeapCallback_defaultCreate)
                  00016602    00000004                       : rom_sysbios.obj (.text:ti_sysbios_knl_Clock_isActive__E)
                  00016606    00000004                       : rom_sysbios.obj (.text:ti_sysbios_knl_Task_getPri__E)
                  0001660a    00000004     app_pem4f.oem4f (.text:xdc_runtime_Startup_reset__I)
                  0001660e    00000004     rom_sysbios.aem4f : rom_sysbios.obj (.text:xdc_runtime_SysCallback_defaultReady)
                  00016612    00000004                       : rom_sysbios.obj (.text:xdc_runtime_System_snprintf_va__F)
                  00016616    00000002     --HOLE-- [fill = 0]
                  00016618    00000008     (.tramp.ti_sysbios_knl_Swi_destruct.1)
                  00016620    00000008     (.tramp.ti_sysbios_knl_Semaphore_destruct.1)
                  00016628    00000008     (.tramp.ti_sysbios_family_arm_m3_Hwi_setPriority__E.1)
                  00016630    00000008     (.tramp.ti_sysbios_family_arm_m3_Hwi_enableInterrupt__E.1)
                  00016638    00000008     (.tramp.ti_sysbios_family_arm_m3_Hwi_destruct.1)
                  00016640    00000008     (.tramp.ti_sysbios_BIOS_getCpuFreq__E.1)
                  00016648    00000008     (.tramp.ti_sysbios_knl_Clock_destruct.1)
                  00016650    00000008     (.tramp.MAC_McpsDataReq.1)
                  00016658    00000008     (.tramp.xdc_runtime_Core_assignParams__I.1)
                  00016660    00000008     (.tramp.ti_sysbios_knl_Semaphore_delete.1)
                  00016668    00000008     (.tramp.MAC_MlmeSetReq.1)
                  00016670    00000008     (.tramp.ti_sysbios_knl_Queue_destruct.1)
                  00016678    00000008     (.tramp.ti_sysbios_knl_Clock_logTick__E.1)
                  00016680    00000008     (.tramp.ti_sysbios_knl_Task_blockI__E.1)
                  00016688    00000008     (.tramp.ti_sysbios_knl_Swi_post__E.1)
                  00016690    00000008     (.tramp.ti_sysbios_knl_Queue_construct.1)
                  00016698    00000008     (.tramp.ti_sysbios_BIOS_RtsGateProxy_leave__E.1)
                  000166a0    00000008     (.tramp.ti_sysbios_knl_Swi_construct.1)
                  000166a8    00000008     (.tramp.ti_sysbios_BIOS_RtsGateProxy_enter__E.1)
                  000166b0    00000008     (.tramp.ti_sysbios_family_arm_m3_Hwi_disableFxn__E.1)
                  000166b8    00000008     (.tramp.xdc_runtime_Core_deleteObject__I.1)
                  000166c0    00000008     (.tramp.ti_sysbios_knl_Clock_TimerProxy_getCurrentTick__E.1)
                  000166c8    00000008     (.tramp.ti_sysbios_knl_Semaphore_create.1)
                  000166d0    00000008     (.tramp.xdc_runtime_Memory_alloc__E.1)
                  000166d8    00000008     (.tramp.xdc_runtime_Core_createObject__I.1)
                  000166e0    00000008     (.tramp.ti_sysbios_knl_Task_startup__E.1)
                  000166e8    00000008     (.tramp.ti_sysbios_knl_Swi_startup__E.1)
                  000166f0    00000008     (.tramp.ti_sysbios_hal_Hwi_startup__E.1)
                  000166f8    00000008     (.tramp.ti_sysbios_family_arm_cc26xx_Timer_startup__E.1)
                  00016700    00000008     (.tramp.xdc_runtime_System_atexit__E.1)
                  00016708    00000008     (.tramp.ti_sysbios_BIOS_linkedWithIncorrectBootLibrary__E.1)
                  00016710    00000008     (.tramp.ti_sysbios_BIOS_setThreadType__E.1)
                  00016718    00000008     (.tramp.ti_sysbios_knl_Swi_disable__E.1)
                  00016720    00000008     (.tramp.ti_sysbios_knl_Queue_next__E.1)
                  00016728    00000008     (.tramp.ti_sysbios_knl_Queue_head__E.1)
                  00016730    00000008     (.tramp.ti_sysbios_knl_Queue_Object__get__S.1)
                  00016738    00000008     (.tramp.ti_sysbios_family_arm_m3_Hwi_construct.1)
                  00016740    00000008     (.tramp.ti_sysbios_family_arm_m3_Hwi_Params__init__S.1)
                  00016748    00000008     (.tramp.xdc_runtime_Startup_rtsDone__E.1)
                  00016750    00000008     (.tramp.MAC_MlmeDisassociateReq.1)
                  00016758    00000008     (.tramp.ti_sysbios_knl_Clock_construct.1)
                  00016760    00000008     (.tramp.ti_sysbios_knl_Swi_Params__init__S.1)
                  00016768    00000008     (.tramp.xdc_runtime_System_exit__E.1)
                  00016770    00000008     (.tramp.MAC_MlmeScanReq.1)
                  00016778    00000008     (.tramp.ti_sysbios_BIOS_start__E.1)
                  00016780    00000008     (.tramp.MAC_MlmeOrphanRsp.1)
                  00016788    00000008     (.tramp.MAC_MlmeStartReq.1)
                  00016790    00000008     (.tramp.ti_sysbios_knl_Task_unblockI__E.1)
                  00016798    00000008     (.tramp.ti_sysbios_knl_Queue_dequeue__E.1)
                  000167a0    00000008     (.tramp.MAC_MlmeSetSecurityReq.1)
                  000167a8    00000008     (.tramp.MAC_MlmeResetReq.1)
                  000167b0    00000008     (.tramp.ti_sysbios_knl_Task_self__E.1)
                  000167b8    00000008     (.tramp.ti_sysbios_knl_Clock_create.1)
                  000167c0    00000008     (.tramp.ti_sysbios_knl_Clock_Params__init__S.1)
                  000167c8    00000008     (.tramp.ti_sysbios_knl_Task_restore__E.1)
                  000167d0    00000008     (.tramp.ti_sysbios_knl_Queue_enqueue__E.1)
                  000167d8    00000008     (.tramp.ti_sysbios_knl_Queue_empty__E.1)
                  000167e0    00000008     (.tramp.ti_sysbios_knl_Queue_remove__E.1)
                  000167e8    00000008     (.tramp.macMainSetTaskId.1)
                  000167f0    00000008     (.tramp.ti_sysbios_knl_Task_construct.1)
                  000167f8    00000008     (.tramp.ti_sysbios_knl_Task_Params__init__S.1)
                  00016800    00000008     (.tramp.MAC_MlmeAssociateRsp.1)
                  00016808    00000008     (.tramp.ti_sysbios_knl_Clock_start__E.1)
                  00016810    00000008     (.tramp.ti_sysbios_knl_Clock_setTimeout__E.1)
                  00016818    00000008     (.tramp.ti_sysbios_knl_Swi_restore__E.1)
                  00016820    00000008     (.tramp.ti_sysbios_knl_Task_sleep__E.1)
                  00016828    00000008     (.tramp.xdc_runtime_System_doPrint__I.1)
                  00016830    00000008     (.tramp.xdc_runtime_Text_putSite__E.1)
                  00016838    00000008     (.tramp.xdc_runtime_Text_putLab__E.1)
                  00016840    00000008     (.tramp.ti_sysbios_knl_Clock_stop__E.1)
                  00016848    00000008     (.tramp.xdc_runtime_System_vsnprintf__E.1)
                  00016850    00000008     (.tramp.ti_sysbios_knl_Semaphore_construct.1)
                  00016858    00000008     (.tramp.ti_sysbios_knl_Semaphore_Params__init__S.1)
                  00016860    00000008     (.tramp.strlen.1)
                  00016868    00000008     (.tramp.ti_sysbios_knl_Clock_getTicks__E.1)
                  00016870    00000008     (.tramp.ti_sysbios_knl_Semaphore_post__E.1)

.text.2    0    00056000    00001fa8     
                  00056000    000007e8     maclib_secure_cc13x2.a : mac_rx.obj (.text:macRxFrameIsr)
                  000567e8    00000008     (.tramp.ti_sysbios_family_arm_m3_Hwi_restoreFxn__E.1)
                  000567f0    000004a4     rf_multiMode_cc13x2.aem4f : RFCC26X2_multiMode.c.cc13x2.ccs.o (.text:RF_fsmActiveState)
                  00056c94    00000460     maclib_secure_cc13x2.a : mac_radio_tx.obj (.text:macRadioTxGoSubG$28)
                  000570f4    00000444                            : mac_hl_patch.obj (.text:macWrapperAddDevice)
                  00057538    0000043c     main.obj (.text:appTaskFxn)
                  00057974    00000008     (.tramp.MAC_MlmeGetReq.1)
                  0005797c    00000008     (.tramp.ti_sysbios_knl_Semaphore_pend__E.1)
                  00057984    0000043c     macTask.obj (.text:macTaskFxn$9)
                  00057dc0    00000008     (.tramp.xdc_runtime_System_abort__E.1)
                  00057dc8    00000008     (.tramp.MAC_Init.1)
                  00057dd0    00000008     (.tramp.MAC_InitCoord.1)
                  00057dd8    00000008     (.tramp.macExecute.1)
                  00057de0    00000008     (.tramp.ti_sysbios_knl_Clock_delete.1)
                  00057de8    00000008     (.tramp.mac_msg_deallocate.1)
                  00057df0    00000008     (.tramp.ti_sysbios_knl_Task_enable__E.1)
                  00057df8    00000008     (.tramp.ti_sysbios_knl_Task_disable__E.1)
                  00057e00    00000008     (.tramp.macCommStatusInd.1)
                  00057e08    0000019c     maclib_secure_cc13x2.a : mac_hl_patch.obj (.text:macIncomingFrameSecurityMaterialRetrieval)
                  00057fa4    00000004     api_mac.obj (.text:ApiMac_mlmeGetReqUint16)

MODULE SUMMARY

       Module                                   code    ro data   rw data
       ------                                   ----    -------   -------
    .\
       CC1352R1_LAUNCHXL_fxns.obj               216     28        0      
    +--+----------------------------------------+-------+---------+---------+
       Total:                                   216     28        0      
                                                                         
    .\application\
       main.obj                                 1212    8         1732   
    +--+----------------------------------------+-------+---------+---------+
       Total:                                   1212    8         1732   
                                                                         
    .\application\collector\
       csf.obj                                  6396    24        716    
       collector.obj                            3902    0         196    
    +--+----------------------------------------+-------+---------+---------+
       Total:                                   10298   24        912    
                                                                         
    .\application\collector\link_controller\
       cllc.obj                                 2000    154       824    
    +--+----------------------------------------+-------+---------+---------+
       Total:                                   2000    154       824    
                                                                         
    .\application\cui\
       cui.obj                                  2006    36        1284   
    +--+----------------------------------------+-------+---------+---------+
       Total:                                   2006    36        1284   
                                                                         
    .\software_stack\ti15_4stack\mac\
       macTask.obj                              1572    19        2244   
       api_mac.obj                              1732    0         52     
    +--+----------------------------------------+-------+---------+---------+
       Total:                                   3304    19        2296   
                                                                         
    .\software_stack\ti15_4stack\mac\mac_settings\
       mac_user_config.obj                      1012    204       0      
       mac_cfg.obj                              0       692       208    
       mac_settings.obj                         0       0         432    
    +--+----------------------------------------+-------+---------+---------+
       Total:                                   1012    896       640    
                                                                         
    .\software_stack\ti15_4stack\nv\
       nvocmp.obj                               6372    0         120    
       crc.obj                                  32      256       0      
    +--+----------------------------------------+-------+---------+---------+
       Total:                                   6404    256       120    
                                                                         
    .\syscfg\
       ti_drivers_config.obj                    258     252       33560  
       ti_radio_config.obj                      0       172       156    
       ti_devices_config.obj                    0       88        0      
    +--+----------------------------------------+-------+---------+---------+
       Total:                                   258     512       33716  
                                                                         
    C:\Users\c1029\AppData\Local\Temp\
       {E9E59E88-C0D4-4001-9E94-8843DA39FD4A}   0       392       1747   
    +--+----------------------------------------+-------+---------+---------+
       Total:                                   0       392       1747   
                                                                         
    C:\Users\c1029\workspace_v10\collector_CC1352R1_LAUNCHXL_tirtos_ccs\Release\configPkg\package\cfg\
       app_pem4f.oem4f                          1040    1473      1798   
    +--+----------------------------------------+-------+---------+---------+
       Total:                                   1040    1473      1798   
                                                                         
    C:/ti/simplelink_cc13x2_26x2_sdk_4_30_00_54/kernel/tirtos/packages/ti/dpl/lib/ccs/m4f/dpl_cc13x2.a
       PowerCC26X2_tirtos.oem4f                 260     0         8      
       ClockP_tirtos.oem4f                      202     0         0      
       SwiP_tirtos.oem4f                        140     0         0      
       HwiP_tirtos.oem4f                        130     0         0      
       SemaphoreP_tirtos.oem4f                  126     0         0      
    +--+----------------------------------------+-------+---------+---------+
       Total:                                   858     0         8      
                                                                         
    C:/ti/simplelink_cc13x2_26x2_sdk_4_30_00_54/source/ti/devices/cc13x2_cc26x2/driverlib/bin/ccs/driverlib.lib
       sys_ctrl.obj                             404     0         0      
       setup.obj                                384     0         0      
       osc.obj                                  340     0         36     
       chipinfo.obj                             228     0         0      
       prcm.obj                                 160     0         0      
       flash.obj                                56      0         0      
       cpu.obj                                  30      0         0      
       aux_sysif.obj                            0       8         0      
    +--+----------------------------------------+-------+---------+---------+
       Total:                                   1602    8         36     
                                                                         
    C:/ti/simplelink_cc13x2_26x2_sdk_4_30_00_54/source/ti/drivers/lib/ccs/m4f/drivers_cc13x2.a
       UARTCC26XX.oem4f                         2760    108       0      
       PowerCC26X2.oem4f                        2196    84        368    
       PINCC26XX.oem4f                          1566    0         328    
       PowerCC26X2_calibrateRCOSC.oem4f         1400    0         0      
       TRNGCC26XX.oem4f                         954     0         98     
       NVSCC26XX.oem4f                          986     40        12     
       GPIOCC26XX.oem4f                         864     64        61     
       Button.oem4f                             794     16        0      
       AESCCMCC26XX.oem4f                       756     0         1      
       LED.oem4f                                704     8         0      
       TemperatureCC26X2.oem4f                  368     0         13     
       Random.oem4f                             176     140       20     
       CryptoResourceCC26XX.oem4f               98      0         190    
       UART.oem4f                               216     36        1      
       List.oem4f                               210     0         0      
       PWM.oem4f                                182     24        1      
       StructRingBuf.oem4f                      194     0         0      
       NVS.oem4f                                160     4         1      
       RingBuf.oem4f                            152     0         0      
       AESCCM.oem4f                             40      16        0      
       CryptoUtils.oem4f                        34      0         0      
       CryptoKeyPlaintextCC26XX.oem4f           28      0         0      
       TRNG.oem4f                               0       16        0      
    +--+----------------------------------------+-------+---------+---------+
       Total:                                   14838   556       1094   
                                                                         
    C:/ti/simplelink_cc13x2_26x2_sdk_4_30_00_54/source/ti/drivers/rf/lib/rf_multiMode_cc13x2.aem4f
       RFCC26X2_multiMode.c.cc13x2.ccs.o        10248   40        1285   
       rf_patch_cpe_prop.c.cc13x2.ccs.o         108     496       1      
       rfc.c.cc13x2.ccs.o                       302     0         0      
    +--+----------------------------------------+-------+---------+---------+
       Total:                                   10658   536       1286   
                                                                         
    C:/ti/simplelink_cc13x2_26x2_sdk_4_30_00_54/source/ti/ti154stack/library/tirtos/ccs/bin/maclib_osal_tirtos_cc13x2_26x2.a
       osal_port.obj                            1552    0         400    
       util_timer.obj                           104     0         0      
       mac_util.obj                             94      0         0      
       osal_port_timers.obj                     0       0         16     
    +--+----------------------------------------+-------+---------+---------+
       Total:                                   1750    0         416    
                                                                         
    C:/ti/simplelink_cc13x2_26x2_sdk_4_30_00_54/source/ti/ti154stack/library/tirtos/ccs/bin/maclib_secure_cc13x2.a
       mac_hl_patch.obj                         8772    0         12     
       mac_radio_tx.obj                         4200    0         20     
       mac.obj                                  3584    0         183    
       mac_rx.obj                               3364    8         40     
       mac_radio.obj                            2564    0         312    
       mac_tx.obj                               2784    0         37     
       mac_timer.obj                            1532    0         0      
       hmac_rom_init.obj                        0       1384      0      
       hmac_global.obj                          0       817       264    
       mac_pwr.obj                              906     0         0      
       mac_autopend.obj                         622     0         4      
       fh_rom_init.obj                          0       600       0      
       mac_rx_onoff.obj                         572     0         0      
       mac_symbol_timer.obj                     528     0         40     
       mac_low_level.obj                        420     0         0      
       mac_mcu.obj                              390     0         0      
       fh_global.obj                            0       258       108    
       lmac_rom_init.obj                        0       204       0      
       saddr.obj                                112     0         0      
       icall_osal_rom_init.obj                  0       108       0      
       mac_sleep.obj                            80      0         1      
       fh_ie_patch.obj                          42      0         0      
       rom_init_154.obj                         0       0         16     
       lmac_global.obj                          0       0         4      
    +--+----------------------------------------+-------+---------+---------+
       Total:                                   30472   3379      1041   
                                                                         
    C:\Users\c1029\workspace_v10\collector_CC1352R1_LAUNCHXL_tirtos_ccs\src\sysbios\rom_sysbios.aem4f
       rom_sysbios.obj                          1617    0         0      
       rom_sysbios_config.obj                   26      0         0      
    +--+----------------------------------------+-------+---------+---------+
       Total:                                   1643    0         0      
                                                                         
    C:\ti\ccs1010\ccs\tools\compiler\ti-cgt-arm_20.2.1.LTS\lib\rtsv7M4_T_le_v4SPD16_eabi.lib
       strtol.c.obj                             304     0         0      
       ctype.c.obj                              0       257       0      
       memcpy_t2.asm.obj                        156     0         0      
       ull_div_t2.asm.obj                       150     0         0      
       memset_t2.asm.obj                        122     0         0      
       ll_div_t2.asm.obj                        110     0         0      
       copy_decompress_lzss.c.obj               104     0         0      
       atoi.c.obj                               76      0         0      
       cpy_tbl.c.obj                            76      0         0      
       u_divt2.asm.obj                          64      0         0      
       strncpy.c.obj                            52      0         0      
       strncat.c.obj                            38      0         0      
       memcmp.c.obj                             36      0         0      
       _lock.c.obj                              26      0         8      
       args_main.c.obj                          24      0         0      
       ll_mul_t2.asm.obj                        24      0         0      
       copy_decompress_none.c.obj               14      0         0      
       copy_zero_init.c.obj                     12      0         0      
       errno.c.obj                              8       0         4      
       stkdepth_vars.c.obj                      0       0         4      
       div0.asm.obj                             2       0         0      
    +--+----------------------------------------+-------+---------+---------+
       Total:                                   1398    257       16     
                                                                         
    C:\ti\simplelink_cc13x2_26x2_sdk_4_30_00_54\kernel\tirtos\packages\ti\targets\arm\rtsarm\lib\auto_init.aem4f
       auto_init.oem4f                          160     0         0      
    +--+----------------------------------------+-------+---------+---------+
       Total:                                   160     0         0      
                                                                         
    C:\ti\simplelink_cc13x2_26x2_sdk_4_30_00_54\kernel\tirtos\packages\ti\targets\arm\rtsarm\lib\boot.aem4f
       boot.oem4f                               88      0         0      
    +--+----------------------------------------+-------+---------+---------+
       Total:                                   88      0         0      
                                                                         
       Stack:                                   0       0         1376   
       Linker Generated:                        704     1235      0      
    +--+----------------------------------------+-------+---------+---------+
       Grand Total:                             91921   9769      50342  


LINKER GENERATED COPY TABLES

__TI_cinit_table @ 00016d20 records: 6, size/record: 8, table size: 48
	.data: load addr=00016878, load size=0000046f bytes, run addr=20000120, run size=000028f1 bytes, compression=lzss
	.bss: load addr=00016cf8, load size=00000008 bytes, run addr=20002a18, run size=00001561 bytes, compression=zero_init
	.data:RAM_MAC_BASE_ADDR: load addr=00016d00, load size=00000008 bytes, run addr=2000010c, run size=00000010 bytes, compression=zero_init
	.data:xdcRomConstPtr: load addr=00016d08, load size=00000008 bytes, run addr=20000100, run size=00000004 bytes, compression=lzss
	.data:xdcRomExternFuncPtr: load addr=00016d10, load size=00000008 bytes, run addr=20000104, run size=00000004 bytes, compression=lzss
	.data:xdcRomStatePtr: load addr=00016d18, load size=00000008 bytes, run addr=20000108, run size=00000004 bytes, compression=lzss


LINKER GENERATED HANDLER TABLE

__TI_handler_table @ 00016ce8 records: 3, size/record: 4, table size: 12
	index: 0, handler: __TI_decompress_lzss
	index: 1, handler: __TI_decompress_none
	index: 2, handler: __TI_zero_init


FAR CALL TRAMPOLINES

callee name               trampoline name
   callee addr  tramp addr   call addr  call info
--------------  -----------  ---------  ----------------
ti_sysbios_knl_Swi_destruct  $Tramp$TT$L$PI$$ti_sysbios_knl_Swi_destruct
   1002e8bd     00016618     000165be   dpl_cc13x2.a : SwiP_tirtos.oem4f (.text:SwiP_destruct)
ti_sysbios_knl_Semaphore_destruct  $Tramp$TT$L$PI$$ti_sysbios_knl_Semaphore_destruct
   1002e6fd     00016620     000165b6   dpl_cc13x2.a : SemaphoreP_tirtos.oem4f (.text:SemaphoreP_destruct)
ti_sysbios_family_arm_m3_Hwi_setPriority__E  $Tramp$TT$L$PI$$ti_sysbios_family_arm_m3_Hwi_setPriority__E
   1002e919     00016628     000165aa   dpl_cc13x2.a : HwiP_tirtos.oem4f (.text:HwiP_setPriority)
ti_sysbios_family_arm_m3_Hwi_enableInterrupt__E  $Tramp$TT$L$PI$$ti_sysbios_family_arm_m3_Hwi_enableInterrupt__E
   1002d91d     00016630     000165a2   dpl_cc13x2.a : HwiP_tirtos.oem4f (.text:HwiP_enableInterrupt)
ti_sysbios_family_arm_m3_Hwi_destruct  $Tramp$TT$L$PI$$ti_sysbios_family_arm_m3_Hwi_destruct
   1002e475     00016638     0001659a   dpl_cc13x2.a : HwiP_tirtos.oem4f (.text:HwiP_destruct)
ti_sysbios_BIOS_getCpuFreq__E  $Tramp$TT$L$PI$$ti_sysbios_BIOS_getCpuFreq__E
   1002e9fd     00016640     00016566   dpl_cc13x2.a : ClockP_tirtos.oem4f (.text:ClockP_getCpuFreq)
ti_sysbios_knl_Clock_destruct  $Tramp$TT$L$PI$$ti_sysbios_knl_Clock_destruct
   1002e649     00016648     00016562   dpl_cc13x2.a : ClockP_tirtos.oem4f (.text:ClockP_destruct)
MAC_McpsDataReq           $Tramp$TT$L$PI$$MAC_McpsDataReq
   10036729     00016650     00016556   api_mac.obj (.text:ApiMac_mcpsDataReq)
xdc_runtime_Core_assignParams__I  $Tramp$TT$L$PI$$xdc_runtime_Core_assignParams__I
   1002f4c9     00016658     000163c0   app_pem4f.oem4f (.text:ti_sysbios_gates_GateMutexPri_Params__init__S)
ti_sysbios_knl_Semaphore_delete  $Tramp$TT$L$PI$$ti_sysbios_knl_Semaphore_delete
   1002ecdb     00016660     0001634a   dpl_cc13x2.a : SemaphoreP_tirtos.oem4f (.text:SemaphoreP_delete)
MAC_MlmeSetReq            $Tramp$TT$L$PI$$MAC_MlmeSetReq
   10039ec5     00016668     000161fc   api_mac.obj (.text:ApiMac_mlmeSetReqBool)
                             0001620a   api_mac.obj (.text:ApiMac_mlmeSetReqUint16)
                             00016218   api_mac.obj (.text:ApiMac_mlmeSetReqUint8)
                             00016496   api_mac.obj (.text:ApiMac_mlmeSetReqArray)
ti_sysbios_knl_Queue_destruct  $Tramp$TT$L$PI$$ti_sysbios_knl_Queue_destruct
   1002e89d     00016670     0001617a   rom_sysbios.aem4f : rom_sysbios.obj (.text:ti_sysbios_gates_GateMutexPri_Instance_finalize__E)
ti_sysbios_knl_Clock_logTick__E  $Tramp$TT$L$PI$$ti_sysbios_knl_Clock_logTick__E
   1002dbd7     00016678     00016016   app_pem4f.oem4f (.text:ti_sysbios_knl_Clock_doTick__I)
ti_sysbios_knl_Task_blockI__E  $Tramp$TT$L$PI$$ti_sysbios_knl_Task_blockI__E
   1002d7b1     00016680     00015dee   rom_sysbios.aem4f : rom_sysbios.obj (.text:ti_sysbios_knl_Task_block__E)
ti_sysbios_knl_Swi_post__E  $Tramp$TT$L$PI$$ti_sysbios_knl_Swi_post__E
   1002d891     00016688     00015d10   rom_sysbios.aem4f : rom_sysbios.obj (.text:ti_sysbios_knl_Swi_or__E)
                             0001601e   app_pem4f.oem4f (.text:ti_sysbios_knl_Clock_doTick__I)
ti_sysbios_knl_Queue_construct  $Tramp$TT$L$PI$$ti_sysbios_knl_Queue_construct
   1002dee5     00016690     00015cdc   rom_sysbios.aem4f : rom_sysbios.obj (.text:ti_sysbios_gates_GateMutexPri_Instance_init__E)
ti_sysbios_BIOS_RtsGateProxy_leave__E  $Tramp$TT$L$PI$$ti_sysbios_BIOS_RtsGateProxy_leave__E
   1002ec7b     00016698     00015cc2   app_pem4f.oem4f (.text:ti_sysbios_BIOS_rtsUnlock__I)
ti_sysbios_knl_Swi_construct  $Tramp$TT$L$PI$$ti_sysbios_knl_Swi_construct
   1002d719     000166a0     000158fe   rom_sysbios.aem4f : rom_sysbios.obj (.text:ti_sysbios_knl_Swi_construct2__E)
ti_sysbios_BIOS_RtsGateProxy_enter__E  $Tramp$TT$L$PI$$ti_sysbios_BIOS_RtsGateProxy_enter__E
   1002ec77     000166a8     0001546a   app_pem4f.oem4f (.text:ti_sysbios_BIOS_rtsLock__I)
ti_sysbios_family_arm_m3_Hwi_disableFxn__E  $Tramp$TT$L$PI$$ti_sysbios_family_arm_m3_Hwi_disableFxn__E
   1002eb55     000166b0     0001514c   dpl_cc13x2.a : HwiP_tirtos.oem4f (.text:HwiP_setFunc)
                             000160fa   main.obj (.text:Main_assertHandler)
                             0001659e   dpl_cc13x2.a : HwiP_tirtos.oem4f (.text:HwiP_disable)
xdc_runtime_Core_deleteObject__I  $Tramp$TT$L$PI$$xdc_runtime_Core_deleteObject__I
   1002f367     000166b8     00014fe2   app_pem4f.oem4f (.text:ti_sysbios_gates_GateMutexPri_Object__delete__S)
                             00015006   app_pem4f.oem4f (.text:ti_sysbios_heaps_HeapCallback_Object__delete__S)
ti_sysbios_knl_Clock_TimerProxy_getCurrentTick__E  $Tramp$TT$L$PI$$ti_sysbios_knl_Clock_TimerProxy_getCurrentTick__E
   1002eac5     000166c0     00014a36   rom_sysbios.aem4f : rom_sysbios.obj (.text:ti_sysbios_knl_Clock_getTicksUntilInterrupt__E)
ti_sysbios_knl_Semaphore_create  $Tramp$TT$L$PI$$ti_sysbios_knl_Semaphore_create
   1002dc49     000166c8     00014834   dpl_cc13x2.a : SemaphoreP_tirtos.oem4f (.text:SemaphoreP_createBinary)
xdc_runtime_Memory_alloc__E  $Tramp$TT$L$PI$$xdc_runtime_Memory_alloc__E
   1002f289     000166d0     0001477c   app_pem4f.oem4f (.text:ti_sysbios_rts_MemAlloc_alloc)
xdc_runtime_Core_createObject__I  $Tramp$TT$L$PI$$xdc_runtime_Core_createObject__I
   1002f2f9     000166d8     000145d0   app_pem4f.oem4f (.text:ti_sysbios_gates_GateMutexPri_Object__create__S)
                             00014600   app_pem4f.oem4f (.text:ti_sysbios_gates_GateMutexPri_create)
                             00014630   app_pem4f.oem4f (.text:ti_sysbios_heaps_HeapCallback_Object__create__S)
ti_sysbios_knl_Task_startup__E  $Tramp$TT$L$PI$$ti_sysbios_knl_Task_startup__E
   1002eceb     000166e0     00014580   app_pem4f.oem4f (.text:ti_sysbios_BIOS_startFunc__I)
ti_sysbios_knl_Swi_startup__E  $Tramp$TT$L$PI$$ti_sysbios_knl_Swi_startup__E
   1002ec6b     000166e8     0001457c   app_pem4f.oem4f (.text:ti_sysbios_BIOS_startFunc__I)
ti_sysbios_hal_Hwi_startup__E  $Tramp$TT$L$PI$$ti_sysbios_hal_Hwi_startup__E
   1002ec31     000166f0     00014578   app_pem4f.oem4f (.text:ti_sysbios_BIOS_startFunc__I)
ti_sysbios_family_arm_cc26xx_Timer_startup__E  $Tramp$TT$L$PI$$ti_sysbios_family_arm_cc26xx_Timer_startup__E
   1002dcf1     000166f8     00014574   app_pem4f.oem4f (.text:ti_sysbios_BIOS_startFunc__I)
xdc_runtime_System_atexit__E  $Tramp$TT$L$PI$$xdc_runtime_System_atexit__E
   1002f559     00016700     0001456c   app_pem4f.oem4f (.text:ti_sysbios_BIOS_startFunc__I)
ti_sysbios_BIOS_linkedWithIncorrectBootLibrary__E  $Tramp$TT$L$PI$$ti_sysbios_BIOS_linkedWithIncorrectBootLibrary__E
   1002d01b     00016708     00014566   app_pem4f.oem4f (.text:ti_sysbios_BIOS_startFunc__I)
ti_sysbios_BIOS_setThreadType__E  $Tramp$TT$L$PI$$ti_sysbios_BIOS_setThreadType__E
   1002ea11     00016710     00014538   app_pem4f.oem4f (.text:ti_sysbios_BIOS_atExitFunc__I)
                             00015dd6   app_pem4f.oem4f (.text:ti_sysbios_BIOS_exitFunc__I)
ti_sysbios_knl_Swi_disable__E  $Tramp$TT$L$PI$$ti_sysbios_knl_Swi_disable__E
   1002ea25     00016718     0001452e   app_pem4f.oem4f (.text:ti_sysbios_BIOS_atExitFunc__I)
                             000156d2   dpl_cc13x2.a : PowerCC26X2_tirtos.oem4f (.text:PowerCC26XX_schedulerDisable)
                             000165c2                : SwiP_tirtos.oem4f (.text:SwiP_disable)
ti_sysbios_knl_Queue_next__E  $Tramp$TT$L$PI$$ti_sysbios_knl_Queue_next__E
   1002ecd7     00016720     000141a8   rom_sysbios.aem4f : rom_sysbios.obj (.text:ti_sysbios_gates_GateMutexPri_insertPri__I)
ti_sysbios_knl_Queue_head__E  $Tramp$TT$L$PI$$ti_sysbios_knl_Queue_head__E
   1002ecd3     00016728     0001419e   rom_sysbios.aem4f : rom_sysbios.obj (.text:ti_sysbios_gates_GateMutexPri_insertPri__I)
ti_sysbios_knl_Queue_Object__get__S  $Tramp$TT$L$PI$$ti_sysbios_knl_Queue_Object__get__S
   1002e87d     00016730     00014122   rom_sysbios.aem4f : rom_sysbios.obj (.text:ti_sysbios_knl_Swi_setPri__E)
ti_sysbios_family_arm_m3_Hwi_construct  $Tramp$TT$L$PI$$ti_sysbios_family_arm_m3_Hwi_construct
   1002d421     00016738     00013a12   rom_sysbios.aem4f : rom_sysbios.obj (.text:ti_sysbios_family_arm_m3_Hwi_construct2__E)
ti_sysbios_family_arm_m3_Hwi_Params__init__S  $Tramp$TT$L$PI$$ti_sysbios_family_arm_m3_Hwi_Params__init__S
   1002eb49     00016740     0001364c   dpl_cc13x2.a : HwiP_tirtos.oem4f (.text:HwiP_construct)
xdc_runtime_Startup_rtsDone__E  $Tramp$TT$L$PI$$xdc_runtime_Startup_rtsDone__E
   1002f8e5     00016748     000135f2   rom_sysbios.aem4f : rom_sysbios.obj (.text:ti_sysbios_heaps_HeapCallback_Module_startup__E)
                             0001455e   app_pem4f.oem4f (.text:ti_sysbios_BIOS_startFunc__I)
MAC_MlmeDisassociateReq   $Tramp$TT$L$PI$$MAC_MlmeDisassociateReq
   10039dc1     00016750     00012e00   cllc.obj (.text:Cllc_sendDisassociationRequest)
ti_sysbios_knl_Clock_construct  $Tramp$TT$L$PI$$ti_sysbios_knl_Clock_construct
   1002dd8d     00016758     00012aee   maclib_osal_tirtos_cc13x2_26x2.a : util_timer.obj (.text:UtilTimer_construct)
                             000130a4   dpl_cc13x2.a : ClockP_tirtos.oem4f (.text:ClockP_construct)
ti_sysbios_knl_Swi_Params__init__S  $Tramp$TT$L$PI$$ti_sysbios_knl_Swi_Params__init__S
   1002ebf1     00016760     00011f0e   dpl_cc13x2.a : SwiP_tirtos.oem4f (.text:SwiP_construct)
xdc_runtime_System_exit__E  $Tramp$TT$L$PI$$xdc_runtime_System_exit__E
   1002f7b1     00016768     00011b7c   boot.aem4f : boot.oem4f (.text)
                             00015ddc   app_pem4f.oem4f (.text:ti_sysbios_BIOS_exitFunc__I)
MAC_MlmeScanReq           $Tramp$TT$L$PI$$MAC_MlmeScanReq
   1003a689     00016770     000115da   cllc.obj (.text:sendScanReq$5)
ti_sysbios_BIOS_start__E  $Tramp$TT$L$PI$$ti_sysbios_BIOS_start__E
   1002eaa5     00016778     0001108a   main.obj (.text:main)
MAC_MlmeOrphanRsp         $Tramp$TT$L$PI$$MAC_MlmeOrphanRsp
   1003648d     00016780     00010bd0   cllc.obj (.text:orphanIndCb$5)
MAC_MlmeStartReq          $Tramp$TT$L$PI$$MAC_MlmeStartReq
   100364e1     00016788     0001038a   cllc.obj (.text:sendStartReq$5)
ti_sysbios_knl_Task_unblockI__E  $Tramp$TT$L$PI$$ti_sysbios_knl_Task_unblockI__E
   1002dcb9     00016790     0000ff88   rom_sysbios.aem4f : rom_sysbios.obj (.text:ti_sysbios_gates_GateMutexPri_leave__E)
ti_sysbios_knl_Queue_dequeue__E  $Tramp$TT$L$PI$$ti_sysbios_knl_Queue_dequeue__E
   1002ebcd     00016798     0000ff6a   rom_sysbios.aem4f : rom_sysbios.obj (.text:ti_sysbios_gates_GateMutexPri_leave__E)
MAC_MlmeSetSecurityReq    $Tramp$TT$L$PI$$MAC_MlmeSetSecurityReq
   1003a99d     000167a0     0000f0d0   cllc.obj (.text:Cllc_securityInit)
                             0000f0e4   cllc.obj (.text:Cllc_securityInit)
                             0001655a   api_mac.obj (.text:ApiMac_mlmeSetSecurityReqStruct)
MAC_MlmeResetReq          $Tramp$TT$L$PI$$MAC_MlmeResetReq
   100391c9     000167a8     0000f064   api_mac.obj (.text:ApiMac_init)
ti_sysbios_knl_Task_self__E  $Tramp$TT$L$PI$$ti_sysbios_knl_Task_self__E
   1002eaf5     000167b0     0000e9aa   rom_sysbios.aem4f : rom_sysbios.obj (.text:ti_sysbios_gates_GateMutexPri_enter__E)
                             0000f02e   api_mac.obj (.text:ApiMac_init)
                             0000ff3a   rom_sysbios.aem4f : rom_sysbios.obj (.text:ti_sysbios_gates_GateMutexPri_leave__E)
                             00010d56   maclib_osal_tirtos_cc13x2_26x2.a : osal_port.obj (.text:OsalPort_clearEvent)
ti_sysbios_knl_Clock_create  $Tramp$TT$L$PI$$ti_sysbios_knl_Clock_create
   1002db25     000167b8     0000e7a8   maclib_osal_tirtos_cc13x2_26x2.a : osal_port.obj (.text:OsalPort_setTimer)
                             000130e4   dpl_cc13x2.a : ClockP_tirtos.oem4f (.text:ClockP_create)
ti_sysbios_knl_Clock_Params__init__S  $Tramp$TT$L$PI$$ti_sysbios_knl_Clock_Params__init__S
   1002eb9d     000167c0     0000e794   maclib_osal_tirtos_cc13x2_26x2.a : osal_port.obj (.text:OsalPort_setTimer)
                             00012ac8                                    : util_timer.obj (.text:UtilTimer_construct)
                             0001308a   dpl_cc13x2.a : ClockP_tirtos.oem4f (.text:ClockP_construct)
                             000130ca                : ClockP_tirtos.oem4f (.text:ClockP_create)
ti_sysbios_knl_Task_restore__E  $Tramp$TT$L$PI$$ti_sysbios_knl_Task_restore__E
   1002df45     000167c8     0000d82a   rom_sysbios.aem4f : rom_sysbios.obj (.text:ti_sysbios_knl_Task_setPri__E)
                             0000e9ce                     : rom_sysbios.obj (.text:ti_sysbios_gates_GateMutexPri_enter__E)
                             0000e9dc                     : rom_sysbios.obj (.text:ti_sysbios_gates_GateMutexPri_enter__E)
                             0000ea12                     : rom_sysbios.obj (.text:ti_sysbios_gates_GateMutexPri_enter__E)
                             0000ff98                     : rom_sysbios.obj (.text:ti_sysbios_gates_GateMutexPri_leave__E)
                             000156f2   dpl_cc13x2.a : PowerCC26X2_tirtos.oem4f (.text:PowerCC26XX_schedulerRestore)
                             00015d84   maclib_osal_tirtos_cc13x2_26x2.a : osal_port.obj (.text:OsalPort_leaveCS)
ti_sysbios_knl_Queue_enqueue__E  $Tramp$TT$L$PI$$ti_sysbios_knl_Queue_enqueue__E
   1002ebd9     000167d0     0000d7fc   rom_sysbios.aem4f : rom_sysbios.obj (.text:ti_sysbios_knl_Task_setPri__E)
                             000141c6                     : rom_sysbios.obj (.text:ti_sysbios_gates_GateMutexPri_insertPri__I)
ti_sysbios_knl_Queue_empty__E  $Tramp$TT$L$PI$$ti_sysbios_knl_Queue_empty__E
   1002eb21     000167d8     0000d7e4   rom_sysbios.aem4f : rom_sysbios.obj (.text:ti_sysbios_knl_Task_setPri__E)
                             0000ff62                     : rom_sysbios.obj (.text:ti_sysbios_gates_GateMutexPri_leave__E)
ti_sysbios_knl_Queue_remove__E  $Tramp$TT$L$PI$$ti_sysbios_knl_Queue_remove__E
   1002eb2f     000167e0     0000d7de   rom_sysbios.aem4f : rom_sysbios.obj (.text:ti_sysbios_knl_Task_setPri__E)
macMainSetTaskId          $Tramp$TT$L$PI$$macMainSetTaskId
   100388e1     000167e8     0000cfb6   macTask.obj (.text:macTaskInit)
ti_sysbios_knl_Task_construct  $Tramp$TT$L$PI$$ti_sysbios_knl_Task_construct
   1002d5d9     000167f0     0000cf90   macTask.obj (.text:macTaskInit)
                             00011086   main.obj (.text:main)
ti_sysbios_knl_Task_Params__init__S  $Tramp$TT$L$PI$$ti_sysbios_knl_Task_Params__init__S
   1002ec09     000167f8     0000cf6a   macTask.obj (.text:macTaskInit)
                             00011068   main.obj (.text:main)
MAC_MlmeAssociateRsp      $Tramp$TT$L$PI$$MAC_MlmeAssociateRsp
   10036471     00016800     0000cb0c   cllc.obj (.text:assocIndCb$5)
ti_sysbios_knl_Clock_start__E  $Tramp$TT$L$PI$$ti_sysbios_knl_Clock_start__E
   1002e9e7     00016808     0000c05e   dpl_cc13x2.a : PowerCC26X2_tirtos.oem4f (.text:PowerCC26XX_standbyPolicy)
                             0000e7e2   maclib_osal_tirtos_cc13x2_26x2.a : osal_port.obj (.text:OsalPort_setTimer)
                             00016572   dpl_cc13x2.a : ClockP_tirtos.oem4f (.text:ClockP_start)
                             000165ce   maclib_osal_tirtos_cc13x2_26x2.a : util_timer.obj (.text:UtilTimer_start)
ti_sysbios_knl_Clock_setTimeout__E  $Tramp$TT$L$PI$$ti_sysbios_knl_Clock_setTimeout__E
   1002ecc3     00016810     0000c058   dpl_cc13x2.a : PowerCC26X2_tirtos.oem4f (.text:PowerCC26XX_standbyPolicy)
                             0000e7dc   maclib_osal_tirtos_cc13x2_26x2.a : osal_port.obj (.text:OsalPort_setTimer)
                             000164b6                                    : util_timer.obj (.text:UtilTimer_setTimeout)
                             0001656e   dpl_cc13x2.a : ClockP_tirtos.oem4f (.text:ClockP_setTimeout)
ti_sysbios_knl_Swi_restore__E  $Tramp$TT$L$PI$$ti_sysbios_knl_Swi_restore__E
   1002db61     00016818     0000ba70   rf_multiMode_cc13x2.aem4f : RFCC26X2_multiMode.c.cc13x2.ccs.o (.text:RF_pendCmd)
                             0000baa2                             : RFCC26X2_multiMode.c.cc13x2.ccs.o (.text:RF_pendCmd)
                             0000baf4                             : RFCC26X2_multiMode.c.cc13x2.ccs.o (.text:RF_pendCmd)
                             000156ea   dpl_cc13x2.a : PowerCC26X2_tirtos.oem4f (.text:PowerCC26XX_schedulerRestore)
ti_sysbios_knl_Task_sleep__E  $Tramp$TT$L$PI$$ti_sysbios_knl_Task_sleep__E
   1002ce01     00016820     0000b2a2   cui.obj (.text:CUI_writeString$6)
xdc_runtime_System_doPrint__I  $Tramp$TT$L$PI$$xdc_runtime_System_doPrint__I
   1002ecf1     00016828     0000a946   app_pem4f.oem4f (.text:xdc_runtime_System_printfExtend__I)
xdc_runtime_Text_putSite__E  $Tramp$TT$L$PI$$xdc_runtime_Text_putSite__E
   1002f15d     00016830     0000a914   app_pem4f.oem4f (.text:xdc_runtime_System_printfExtend__I)
xdc_runtime_Text_putLab__E  $Tramp$TT$L$PI$$xdc_runtime_Text_putLab__E
   1002f3c5     00016838     0000a8da   app_pem4f.oem4f (.text:xdc_runtime_System_printfExtend__I)
ti_sysbios_knl_Clock_stop__E  $Tramp$TT$L$PI$$ti_sysbios_knl_Clock_stop__E
   1002e2c5     00016840     0000a71a   maclib_secure_cc13x2.a : mac_hl_patch.obj (.text:macEdScanISR)
                             0000c072   dpl_cc13x2.a : PowerCC26X2_tirtos.oem4f (.text:PowerCC26XX_standbyPolicy)
                             0000e7ce   maclib_osal_tirtos_cc13x2_26x2.a : osal_port.obj (.text:OsalPort_setTimer)
                             0001630e                                    : osal_port.obj (.text:OsalPort_stopTimer)
                             00016576   dpl_cc13x2.a : ClockP_tirtos.oem4f (.text:ClockP_stop)
                             000165d2   maclib_osal_tirtos_cc13x2_26x2.a : util_timer.obj (.text:UtilTimer_stop)
xdc_runtime_System_vsnprintf__E  $Tramp$TT$L$PI$$xdc_runtime_System_vsnprintf__E
   1002f8b9     00016848     000099f2   cui.obj (.text:CUI_statusLinePrintf)
                             00016612   rom_sysbios.aem4f : rom_sysbios.obj (.text:xdc_runtime_System_snprintf_va__F)
ti_sysbios_knl_Semaphore_construct  $Tramp$TT$L$PI$$ti_sysbios_knl_Semaphore_construct
   1002ddc1     00016850     0000960e   cui.obj (.text:CUI_init)
                             0000962a   cui.obj (.text:CUI_init)
                             0000963a   cui.obj (.text:CUI_init)
                             000096dc   cui.obj (.text:CUI_init)
                             0000cf58   macTask.obj (.text:macTaskInit)
                             0000f026   api_mac.obj (.text:ApiMac_init)
                             0001480a   dpl_cc13x2.a : SemaphoreP_tirtos.oem4f (.text:SemaphoreP_constructBinary)
ti_sysbios_knl_Semaphore_Params__init__S  $Tramp$TT$L$PI$$ti_sysbios_knl_Semaphore_Params__init__S
   1002ebe5     00016858     000095f6   cui.obj (.text:CUI_init)
                             0000cf42   macTask.obj (.text:macTaskInit)
                             0000f012   api_mac.obj (.text:ApiMac_init)
                             000147fa   dpl_cc13x2.a : SemaphoreP_tirtos.oem4f (.text:SemaphoreP_constructBinary)
                             00014824                : SemaphoreP_tirtos.oem4f (.text:SemaphoreP_createBinary)
strlen                    $Tramp$TT$L$PI$$strlen
   1002fddb     00016860     000090b6   cui.obj (.text:CUI_dispMenu$6)
                             000090c6   cui.obj (.text:CUI_dispMenu$6)
                             0000969e   cui.obj (.text:CUI_init)
                             000099de   cui.obj (.text:CUI_statusLinePrintf)
                             00009a14   cui.obj (.text:CUI_statusLinePrintf)
                             00009a48   cui.obj (.text:CUI_statusLinePrintf)
                             00012476   cui.obj (.text:CUI_updateCursor$6)
                             0001512c   cui.obj (.text:CUI_updateRemLen$6)
ti_sysbios_knl_Clock_getTicks__E  $Tramp$TT$L$PI$$ti_sysbios_knl_Clock_getTicks__E
   1002dc11     00016868     0000757a   drivers_cc13x2.a : Button.oem4f (.text:Button_clockTimeoutHandler)
                             00014660   rom_sysbios.aem4f : rom_sysbios.obj (.text:ti_sysbios_knl_Clock_getTimeout__E)
                             0001602c   drivers_cc13x2.a : Button.oem4f (.text:timediff)
ti_sysbios_knl_Semaphore_post__E  $Tramp$TT$L$PI$$ti_sysbios_knl_Semaphore_post__E
   1002cd21     00016870     00002db2   csf.obj (.text:Csf_init)
                             00002fdc   csf.obj (.text:Csf_init)
                             00009f74   csf.obj (.text:sensorSetReportInterval$4)
                             0000ab14   cui.obj (.text:CUI_statusLineResourceRequest)
                             0000b326   cui.obj (.text:CUI_writeString$6)
                             0001173a   maclib_osal_tirtos_cc13x2_26x2.a : osal_port.obj (.text:OsalPort_setEvent)
                             00015374   csf.obj (.text:processBroadcastTimeoutCallback$4)
                             00015394   csf.obj (.text:processConfigTimeoutCallback$4)
                             000153ba   csf.obj (.text:processKeyChangeCallback$4)
                             000153d4   csf.obj (.text:processTrackingTimeoutCallback$4)
                             000158b8   csf.obj (.text:sensorDeviceTypeRequestAction$4)
                             000158d4   csf.obj (.text:sensorDisassocAction$4)
                             000158f0   csf.obj (.text:sensorLedToggleAction$4)
                             00015ae2   csf.obj (.text:closeNwkAction$4)
                             00015b28   csf.obj (.text:formNwkAction$4)
                             00015c4a   csf.obj (.text:openNwkAction$4)
                             00015c64   csf.obj (.text:processMenuUpdate$4)
                             000165ba   dpl_cc13x2.a : SemaphoreP_tirtos.oem4f (.text:SemaphoreP_post)
ti_sysbios_family_arm_m3_Hwi_restoreFxn__E  $Tramp$TT$L$PI$$ti_sysbios_family_arm_m3_Hwi_restoreFxn__E
   1002ec47     000567e8     000561d2   maclib_secure_cc13x2.a : mac_rx.obj (.text:macRxFrameIsr)
                             000561e4                          : mac_rx.obj (.text:macRxFrameIsr)
                             000567d0                          : mac_rx.obj (.text:macRxFrameIsr)
                             000568aa   rf_multiMode_cc13x2.aem4f : RFCC26X2_multiMode.c.cc13x2.ccs.o (.text:RF_fsmActiveState)
                             000569a8                             : RFCC26X2_multiMode.c.cc13x2.ccs.o (.text:RF_fsmActiveState)
                             00056a42                             : RFCC26X2_multiMode.c.cc13x2.ccs.o (.text:RF_fsmActiveState)
                             00056b32                             : RFCC26X2_multiMode.c.cc13x2.ccs.o (.text:RF_fsmActiveState)
                             00056bb4                             : RFCC26X2_multiMode.c.cc13x2.ccs.o (.text:RF_fsmActiveState)
                             00056c40                             : RFCC26X2_multiMode.c.cc13x2.ccs.o (.text:RF_fsmActiveState)
                             00056c64                             : RFCC26X2_multiMode.c.cc13x2.ccs.o (.text:RF_fsmActiveState)
                             00057072   maclib_secure_cc13x2.a : mac_radio_tx.obj (.text:macRadioTxGoSubG$28)
                             000570aa                          : mac_radio_tx.obj (.text:macRadioTxGoSubG$28)
                             00057328                          : mac_hl_patch.obj (.text:macWrapperAddDevice)
                             000573ee                          : mac_hl_patch.obj (.text:macWrapperAddDevice)
                             000574c2                          : mac_hl_patch.obj (.text:macWrapperAddDevice)
                             000574d4                          : mac_hl_patch.obj (.text:macWrapperAddDevice)
                             00057518                          : mac_hl_patch.obj (.text:macWrapperAddDevice)
                             00057524                          : mac_hl_patch.obj (.text:macWrapperAddDevice)
                             00057a02   macTask.obj (.text:macTaskFxn$9)
                             00057bc0   macTask.obj (.text:macTaskFxn$9)
                             00057c3c   macTask.obj (.text:macTaskFxn$9)
                             00057c52   macTask.obj (.text:macTaskFxn$9)
                             00057c72   macTask.obj (.text:macTaskFxn$9)
                             00057d3e   macTask.obj (.text:macTaskFxn$9)
                             000046f4   maclib_secure_cc13x2.a : mac_tx.obj (.text:macTxFrame)
                             00004702                          : mac_tx.obj (.text:macTxFrame)
                             00004902                          : mac_pwr.obj (.text:macPwrVote)
                             0000491a                          : mac_pwr.obj (.text:macPwrVote)
                             00004954                          : mac_pwr.obj (.text:macPwrVote)
                             000054da                          : mac.obj (.text:macSendReceiveCmdIeee)
                             00005920   rf_multiMode_cc13x2.aem4f : RFCC26X2_multiMode.c.cc13x2.ccs.o (.text:RF_scheduleCmd)
                             00005a88   maclib_secure_cc13x2.a : mac.obj (.text:macSendReceiveCmdSubG)
                             00005afe                          : mac.obj (.text:macSendReceiveCmdSubG)
                             00005d96   rf_multiMode_cc13x2.aem4f : RFCC26X2_multiMode.c.cc13x2.ccs.o (.text:RF_open)
                             00005e8c                             : RFCC26X2_multiMode.c.cc13x2.ccs.o (.text:RF_open)
                             0000611e   maclib_secure_cc13x2.a : mac_hl_patch.obj (.text:macWrapperAddKeyInitFCtr)
                             000067ec                          : mac_radio_tx.obj (.text:macRadioTxAck$28)
                             00006800                          : mac_radio_tx.obj (.text:macRadioTxAck$28)
                             00006b86                          : mac_hl_patch.obj (.text:macWrapperDeleteKeyAndAssociatedDevices)
                             00006de6                          : mac_hl_patch.obj (.text:macWrapperDeleteDevice)
                             00006eb2                          : mac_hl_patch.obj (.text:macWrapperDeleteDevice)
                             000074ce                          : mac_radio_tx.obj (.text:macRadioTxGoIeee$28)
                             00007afa   drivers_cc13x2.a : UARTCC26XX.oem4f (.text:UARTCC26XX_open)
                             00007b06                    : UARTCC26XX.oem4f (.text:UARTCC26XX_open)
                             00007b90                    : UARTCC26XX.oem4f (.text:UARTCC26XX_open)
                             00007d94   maclib_secure_cc13x2.a : mac_hl_patch.obj (.text:macWrapperDeleteAllDevices)
                             00007dee                          : mac_tx.obj (.text:txCsmaDelay)
                             00007df8                          : mac_tx.obj (.text:txCsmaDelay)
                             00007e6e                          : mac_tx.obj (.text:txCsmaDelay)
                             00007eae                          : mac_tx.obj (.text:txCsmaDelay)
                             00007ec6                          : mac_tx.obj (.text:txCsmaDelay)
                             00008292   rf_multiMode_cc13x2.aem4f : RFCC26X2_multiMode.c.cc13x2.ccs.o (.text:RF_radioOpDoneCb)
                             00008c9c                             : RFCC26X2_multiMode.c.cc13x2.ccs.o (.text:RF_close)
                             00008d28                             : RFCC26X2_multiMode.c.cc13x2.ccs.o (.text:RF_close)
                             00008e72                             : RFCC26X2_multiMode.c.cc13x2.ccs.o (.text:RF_ratSetupChannel)
                             00008ecc   drivers_cc13x2.a : UARTCC26XX.oem4f (.text:UARTCC26XX_read)
                             00008f28                    : UARTCC26XX.oem4f (.text:UARTCC26XX_read)
                             00008f50                    : UARTCC26XX.oem4f (.text:UARTCC26XX_read)
                             00008f62                    : UARTCC26XX.oem4f (.text:UARTCC26XX_read)
                             00008fac                    : UARTCC26XX.oem4f (.text:UARTCC26XX_read)
                             00008fbc                    : UARTCC26XX.oem4f (.text:UARTCC26XX_read)
                             000091d6                    : NVSCC26XX.oem4f (.text:NVSCC26XX_write)
                             0000948a   rf_multiMode_cc13x2.aem4f : RFCC26X2_multiMode.c.cc13x2.ccs.o (.text:RF_abortCmd)
                             00009ed4   maclib_secure_cc13x2.a : mac.obj (.text:macSetupRATChanCompare)
                             0000a3be   drivers_cc13x2.a : GPIOCC26XX.oem4f (.text:GPIO_setConfig)
                             0000a3ee                    : GPIOCC26XX.oem4f (.text:GPIO_setConfig)
                             0000ae62                    : PINCC26XX.oem4f (.text:PINCC26XX_setIoCfg)
                             0000b658   maclib_secure_cc13x2.a : mac_rx.obj (.text:rxPostRxUpdates$21)
                             0000b692                          : mac_rx.obj (.text:rxPostRxUpdates$21)
                             0000b7cc   drivers_cc13x2.a : UARTCC26XX.oem4f (.text:UARTCC26XX_write)
                             0000b7ee                    : UARTCC26XX.oem4f (.text:UARTCC26XX_write)
                             0000b844                    : UARTCC26XX.oem4f (.text:UARTCC26XX_write)
                             0000ba28   rf_multiMode_cc13x2.aem4f : RFCC26X2_multiMode.c.cc13x2.ccs.o (.text:RF_control)
                             0000bebe                             : RFCC26X2_multiMode.c.cc13x2.ccs.o (.text:RF_swiHw)
                             0000c1b2   drivers_cc13x2.a : GPIOCC26XX.oem4f (.text:GPIO_init)
                             0000c1b8                    : GPIOCC26XX.oem4f (.text:GPIO_init)
                             0000c480                    : PowerCC26X2.oem4f (.text:Power_releaseDependency)
                             0000c832                    : PowerCC26X2.oem4f (.text:Power_setDependency)
                             0000c970   maclib_secure_cc13x2.a : mac_pwr.obj (.text:MAC_PwrOffReq)
                             0000c98e                          : mac_pwr.obj (.text:MAC_PwrOffReq)
                             0000ca4e   drivers_cc13x2.a : TRNGCC26XX.oem4f (.text:TRNG_generateEntropy)
                             0000cc6a   maclib_secure_cc13x2.a : mac.obj (.text:macStopCmd)
                             0000d53c                          : mac_radio.obj (.text:macRadioUpdateTxPower)
                             0000d5a2                          : mac_radio.obj (.text:macRadioUpdateTxPower)
                             0000d64a   rf_multiMode_cc13x2.aem4f : RFCC26X2_multiMode.c.cc13x2.ccs.o (.text:RF_requestAccess)
                             0000da98   maclib_secure_cc13x2.a : mac_timer.obj (.text:macTimerRealign)
                             0000dd28   drivers_cc13x2.a : UARTCC26XX.oem4f (.text:writeTxFifoFlush)
                             0000dfec   rf_multiMode_cc13x2.aem4f : RFCC26X2_multiMode.c.cc13x2.ccs.o (.text:RF_getInfo)
                             0000e06e   drivers_cc13x2.a : TRNGCC26XX.oem4f (.text:TRNGCC26XX_hwiFxn)
                             0000e166   maclib_secure_cc13x2.a : mac_radio.obj (.text:macRadioUpdateChannel)
                             0000e16e                          : mac_radio.obj (.text:macRadioUpdateChannel)
                             0000e1fa                          : mac_radio.obj (.text:macRadioUpdateChannelRx)
                             0000e200                          : mac_radio.obj (.text:macRadioUpdateChannelRx)
                             0000e2b6                          : mac.obj (.text:macRatCb_A)
                             0000e39c   drivers_cc13x2.a : UARTCC26XX.oem4f (.text:UARTCC26XX_writeCancel)
                             0000e3b2                    : UARTCC26XX.oem4f (.text:UARTCC26XX_writeCancel)
                             0000e3e6                    : UARTCC26XX.oem4f (.text:UARTCC26XX_writeCancel)
                             0000e500   maclib_secure_cc13x2.a : mac_hl_patch.obj (.text:MAC_ResumeReq)
                             0000e638                          : mac_hl_patch.obj (.text:macCcmDecrypt)
                             0000e8f8                          : mac_hl_patch.obj (.text:macCcmEncrypt)
                             0000f1e8   rf_multiMode_cc13x2.aem4f : RFCC26X2_multiMode.c.cc13x2.ccs.o (.text:RF_issueRadioFreeCb)
                             0000f200                             : RFCC26X2_multiMode.c.cc13x2.ccs.o (.text:RF_issueRadioFreeCb)
                             0000f37a   maclib_secure_cc13x2.a : mac_rx_onoff.obj (.text:macRxOffRequest)
                             0000fa00   rf_multiMode_cc13x2.aem4f : RFCC26X2_multiMode.c.cc13x2.ccs.o (.text:RF_ratFreeChannel)
                             0000fa26   maclib_secure_cc13x2.a : mac_rx_onoff.obj (.text:macRxOn)
                             0000fa40                          : mac_rx_onoff.obj (.text:macRxOn)
                             0000fa66                          : mac_rx_onoff.obj (.text:macRxOn)
                             0000fcd8                          : mac_timer.obj (.text:macTimerSetRollover)
                             0000fe7c   rf_multiMode_cc13x2.aem4f : RFCC26X2_multiMode.c.cc13x2.ccs.o (.text:RF_yield)
                             0000feb0                             : RFCC26X2_multiMode.c.cc13x2.ccs.o (.text:RF_yield)
                             0000fed8   drivers_cc13x2.a : TRNGCC26XX.oem4f (.text:TRNG_construct)
                             0000fee6                    : TRNGCC26XX.oem4f (.text:TRNG_construct)
                             00010238   rf_multiMode_cc13x2.aem4f : RFCC26X2_multiMode.c.cc13x2.ccs.o (.text:RF_ratDisableChannel)
                             00010640                             : RFCC26X2_multiMode.c.cc13x2.ccs.o (.text:RF_getCurrentTime)
                             0001067c                             : RFCC26X2_multiMode.c.cc13x2.ccs.o (.text:RF_getCurrentTime)
                             00010790   maclib_secure_cc13x2.a : mac_tx.obj (.text:macTxDoneCallback)
                             000107ba                          : mac_tx.obj (.text:macTxDoneCallback)
                             000107c6                          : mac_tx.obj (.text:macTxDoneCallback)
                             00010b46                          : mac_rx.obj (.text:macRxHaltCleanup)
                             00010e36   rf_multiMode_cc13x2.aem4f : RFCC26X2_multiMode.c.cc13x2.ccs.o (.text:RF_dispatchNextEvent)
                             00010e8e   drivers_cc13x2.a : UARTCC26XX.oem4f (.text:UARTCC26XX_control)
                             00011030   maclib_secure_cc13x2.a : mac_timer.obj (.text:macTimerAddTimer)
                             000111da   drivers_cc13x2.a : AESCCMCC26XX.oem4f (.text:AESCCM_hwiFxn)
                             00011216                    : AESCCMCC26XX.oem4f (.text:AESCCM_hwiFxn)
                             0001126c                    : CryptoResourceCC26XX.oem4f (.text:CryptoResourceCC26XX_constructRTOSObjects)
                             000112da                    : GPIOCC26XX.oem4f (.text:GPIO_write)
                             0001145c   maclib_secure_cc13x2.a : mac_timer.obj (.text:macTimerCancel)
                             000117ec   drivers_cc13x2.a : NVSCC26XX.oem4f (.text:doErase)
                             00011a02                    : PowerCC26X2_calibrateRCOSC.oem4f (.text:PowerCC26X2_initiateCalibration)
                             00011b1e                    : TRNGCC26XX.oem4f (.text:TRNG_init)
                             00011cb0                    : AESCCMCC26XX.oem4f (.text:AESCCM_construct)
                             00011cbc                    : AESCCMCC26XX.oem4f (.text:AESCCM_construct)
                             00011e14                    : NVSCC26XX.oem4f (.text:NVSCC26XX_init)
                             00011e24                    : NVSCC26XX.oem4f (.text:NVSCC26XX_init)
                             00011ea8                    : StructRingBuf.oem4f (.text:StructRingBuf_put)
                             00011edc                    : StructRingBuf.oem4f (.text:StructRingBuf_put)
                             00011fc0   maclib_secure_cc13x2.a : mac_radio.obj (.text:macRadioSetChannel)
                             00011fc8                          : mac_radio.obj (.text:macRadioSetChannel)
                             00012014                          : mac_radio.obj (.text:macRadioSetChannelRx)
                             0001201c                          : mac_radio.obj (.text:macRadioSetChannelRx)
                             0001205a                          : mac_tx.obj (.text:macTxAckReceivedCallback)
                             00012076                          : mac_tx.obj (.text:macTxAckReceivedCallback)
                             000121be   drivers_cc13x2.a : GPIOCC26XX.oem4f (.text:GPIO_enableInt)
                             0001238a   maclib_secure_cc13x2.a : mac_rx_onoff.obj (.text:macRxDisable)
                             000123f2                          : mac_timer.obj (.text:macTimerStart)
                             00012608   drivers_cc13x2.a : StructRingBuf.oem4f (.text:StructRingBuf_get)
                             00012612                    : StructRingBuf.oem4f (.text:StructRingBuf_get)
                             00012642                    : UARTCC26XX.oem4f (.text:UARTCC26XX_readCancel)
                             00012656                    : UARTCC26XX.oem4f (.text:UARTCC26XX_readCancel)
                             000129c6                    : PINCC26XX.oem4f (.text:PIN_setOutputEnable)
                             00012a40                    : PowerCC26X2.oem4f (.text:PowerCC26XX_switchXOSC_HF)
                             00012c5a   maclib_secure_cc13x2.a : mac_timer.obj (.text:macTimerUpdActive)
                             00012c82   drivers_cc13x2.a : PowerCC26X2.oem4f (.text:switchXOSCHF)
                             00012d50                    : RingBuf.oem4f (.text:RingBuf_put)
                             00012d7a                    : RingBuf.oem4f (.text:RingBuf_put)
                             00012e3c                    : GPIOCC26XX.oem4f (.text:GPIO_disableInt)
                             00012e78   maclib_secure_cc13x2.a : mac_timer.obj (.text:MAC_PwrNextTimeout)
                             00012f92   drivers_cc13x2.a : PWM.oem4f (.text:PWM_init)
                             00012fd6                    : UART.oem4f (.text:UART_init)
                             0001321a                    : PowerCC26X2.oem4f (.text:PowerCC26XX_isStableXOSC_HF)
                             0001325e                    : Random.oem4f (.text:Random_getNumber)
                             0001329e                    : RingBuf.oem4f (.text:RingBuf_get)
                             000132a6                    : RingBuf.oem4f (.text:RingBuf_get)
                             000133d8   maclib_secure_cc13x2.a : mac_low_level.obj (.text:macLowLevelYield)
                             0001341a                          : mac.obj (.text:macRatCb_B)
                             0001345a                          : mac_rx.obj (.text:macRxNokIsr)
                             000134e0                          : mac_symbol_timer.obj (.text:macSymbolTimerSetTrigger)
                             000135a6   drivers_cc13x2.a : TemperatureCC26X2.oem4f (.text:setNextThresholds)
                             000138c6   rf_multiMode_cc13x2.aem4f : RFCC26X2_multiMode.c.cc13x2.ccs.o (.text:RF_cmdStoreEvents)
                             00013be4                             : RFCC26X2_multiMode.c.cc13x2.ccs.o (.text:RF_powerConstraintRelease)
                             00013cb4   maclib_secure_cc13x2.a : mac_tx.obj (.text:macTxAckNotReceivedCallback)
                             00013cbe                          : mac_tx.obj (.text:macTxAckNotReceivedCallback)
                             00013f54   rf_multiMode_cc13x2.aem4f : RFCC26X2_multiMode.c.cc13x2.ccs.o (.text:RF_runDirectImmediateCmd)
                             00014052   maclib_secure_cc13x2.a : mac_symbol_timer.obj (.text:macSymbolTimerCount)
                             00014340   drivers_cc13x2.a : PowerCC26X2.oem4f (.text:Power_releaseConstraint)
                             00014370                    : PowerCC26X2.oem4f (.text:Power_setConstraint)
                             000143ce                    : TemperatureCC26X2.oem4f (.text:Temperature_unregisterNotify)
                             0001448c   maclib_secure_cc13x2.a : mac_rx_onoff.obj (.text:macRxSoftDisable)
                             000144b8                          : mac_symbol_timer.obj (.text:macSymbolTimerBCWakeUp)
                             000144dc                          : mac_symbol_timer.obj (.text:macSymbolTimerICallTimerCback)
                             00014520                          : mac_timer.obj (.text:macTimerCheckUnAlignedQ)
                             0001472c   rf_multiMode_cc13x2.aem4f : RFCC26X2_multiMode.c.cc13x2.ccs.o (.text:RF_queueEnd)
                             00014938   maclib_secure_cc13x2.a : mac_rx_onoff.obj (.text:macRxSoftEnable)
                             00014966                          : mac_symbol_timer.obj (.text:macSymbolTimerSetRollover)
                             00014a74   drivers_cc13x2.a : List.oem4f (.text:List_insert)
                             00014cd0                    : List.oem4f (.text:List_put)
                             00014cf6                    : List.oem4f (.text:List_putHead)
                             00014d1c                    : List.oem4f (.text:List_remove)
                             00015076                    : List.oem4f (.text:List_get)
                             0001515e   dpl_cc13x2.a : HwiP_tirtos.oem4f (.text:HwiP_setFunc)
                             00015218   drivers_cc13x2.a : PowerCC26X2.oem4f (.text:Power_unregisterNotify)
                             0001543e                    : UARTCC26XX.oem4f (.text:threadSafeStdbyDisRelease)
                             0001545e                    : UARTCC26XX.oem4f (.text:threadSafeStdbyDisSet)
                             00015780   rf_multiMode_cc13x2.aem4f : RFCC26X2_multiMode.c.cc13x2.ccs.o (.text:RF_powerConstraintSet)
                             00015bea   maclib_secure_cc13x2.a : mac_symbol_timer.obj (.text:macSymbolTimerSetTriggerRollover)
                             00015d7c   maclib_osal_tirtos_cc13x2_26x2.a : osal_port.obj (.text:OsalPort_leaveCS)
                             00015db0                                    : mac_util.obj (.text:Util_clearEvent)
                             00015dc6                                    : mac_util.obj (.text:Util_setEvent)
                             00015e2e   drivers_cc13x2.a : List.oem4f (.text:List_clearList)
MAC_MlmeGetReq            $Tramp$TT$L$PI$$MAC_MlmeGetReq
   1003a169     00057974     0005782c   main.obj (.text:appTaskFxn)
                             0005783c   main.obj (.text:appTaskFxn)
                             00057fa4   api_mac.obj (.text:ApiMac_mlmeGetReqUint16)
ti_sysbios_knl_Semaphore_pend__E  $Tramp$TT$L$PI$$ti_sysbios_knl_Semaphore_pend__E
   1002bfb1     0005797c     00057936   main.obj (.text:appTaskFxn)
                             00057c10   macTask.obj (.text:macTaskFxn$9)
                             00002d58   csf.obj (.text:Csf_init)
                             00002eae   csf.obj (.text:Csf_init)
                             0000aad4   cui.obj (.text:CUI_statusLineResourceRequest)
                             0000b26c   cui.obj (.text:CUI_writeString$6)
                             00016074   dpl_cc13x2.a : SemaphoreP_tirtos.oem4f (.text:SemaphoreP_pend)
xdc_runtime_System_abort__E  $Tramp$TT$L$PI$$xdc_runtime_System_abort__E
   1002f711     00057dc0     000579be   macTask.obj (.text:macTaskFxn$9)
                             000579f0   macTask.obj (.text:macTaskFxn$9)
MAC_Init                  $Tramp$TT$L$PI$$MAC_Init
   100399cd     00057dc8     000579f4   macTask.obj (.text:macTaskFxn$9)
MAC_InitCoord             $Tramp$TT$L$PI$$MAC_InitCoord
   1003624d     00057dd0     000579f8   macTask.obj (.text:macTaskFxn$9)
macExecute                $Tramp$TT$L$PI$$macExecute
   1003871d     00057dd8     00057a80   macTask.obj (.text:macTaskFxn$9)
                             00057a94   macTask.obj (.text:macTaskFxn$9)
                             00057aa8   macTask.obj (.text:macTaskFxn$9)
                             00057abc   macTask.obj (.text:macTaskFxn$9)
                             00057ad0   macTask.obj (.text:macTaskFxn$9)
                             00057ae8   macTask.obj (.text:macTaskFxn$9)
                             00057b00   macTask.obj (.text:macTaskFxn$9)
                             00057b18   macTask.obj (.text:macTaskFxn$9)
                             00057b30   macTask.obj (.text:macTaskFxn$9)
                             00057b48   macTask.obj (.text:macTaskFxn$9)
                             00057b60   macTask.obj (.text:macTaskFxn$9)
                             00057b78   macTask.obj (.text:macTaskFxn$9)
                             00057bd0   macTask.obj (.text:macTaskFxn$9)
                             00057cda   macTask.obj (.text:macTaskFxn$9)
                             00057d94   macTask.obj (.text:macTaskFxn$9)
ti_sysbios_knl_Clock_delete  $Tramp$TT$L$PI$$ti_sysbios_knl_Clock_delete
   1002ecbb     00057de0     00057b92   macTask.obj (.text:macTaskFxn$9)
                             0000a720   maclib_secure_cc13x2.a : mac_hl_patch.obj (.text:macEdScanISR)
                             000162ae   dpl_cc13x2.a : ClockP_tirtos.oem4f (.text:ClockP_delete)
mac_msg_deallocate        $Tramp$TT$L$PI$$mac_msg_deallocate
   100387f9     00057de8     00057bdc   macTask.obj (.text:macTaskFxn$9)
                             00057ce6   macTask.obj (.text:macTaskFxn$9)
                             00057d86   macTask.obj (.text:macTaskFxn$9)
                             00057dac   macTask.obj (.text:macTaskFxn$9)
                             0000a042   macTask.obj (.text:MAC_CbackEvent)
ti_sysbios_knl_Task_enable__E  $Tramp$TT$L$PI$$ti_sysbios_knl_Task_enable__E
   1002ec71     00057df0     00057be4   macTask.obj (.text:macTaskFxn$9)
ti_sysbios_knl_Task_disable__E  $Tramp$TT$L$PI$$ti_sysbios_knl_Task_disable__E
   1002ea4d     00057df8     00057c1c   macTask.obj (.text:macTaskFxn$9)
                             0000d7a4   rom_sysbios.aem4f : rom_sysbios.obj (.text:ti_sysbios_knl_Task_setPri__E)
                             0000e9b8                     : rom_sysbios.obj (.text:ti_sysbios_gates_GateMutexPri_enter__E)
                             0000ff44                     : rom_sysbios.obj (.text:ti_sysbios_gates_GateMutexPri_leave__E)
                             00014532   app_pem4f.oem4f (.text:ti_sysbios_BIOS_atExitFunc__I)
                             000156ca   dpl_cc13x2.a : PowerCC26X2_tirtos.oem4f (.text:PowerCC26XX_schedulerDisable)
                             00015930   maclib_osal_tirtos_cc13x2_26x2.a : osal_port.obj (.text:OsalPort_enterCS)
macCommStatusInd          $Tramp$TT$L$PI$$macCommStatusInd
   100393ed     00057e00     00057d78   macTask.obj (.text:macTaskFxn$9)

[88 trampolines]
[406 trampoline calls]


GLOBAL SYMBOLS: SORTED ALPHABETICALLY BY Name 

address   name                                                            
-------   ----                                                            
0001648b  AESCCM_Operation_init                                           
00016085  AESCCM_Params_init                                              
0001628f  AESCCM_close                                                    
00002078  AESCCM_config                                                   
00011c99  AESCCM_construct                                                
00001f1d  AESCCM_count                                                    
00001f2c  AESCCM_defaultParams                                            
20003f48  AESCCM_handle                                                   
00015df9  AESCCM_init                                                     
000164e5  AESCCM_oneStepDecrypt                                           
000164eb  AESCCM_oneStepEncrypt                                           
00016095  AESCCM_open                                                     
00013ded  ApiMac_convertCapabilityInfo                                    
20002640  ApiMac_extAddr                                                  
0000effd  ApiMac_init                                                     
00016557  ApiMac_mcpsDataReq                                              
00057fa5  ApiMac_mlmeGetReqUint16                                         
00016493  ApiMac_mlmeSetReqArray                                          
000161f5  ApiMac_mlmeSetReqBool                                           
00016203  ApiMac_mlmeSetReqUint16                                         
00016211  ApiMac_mlmeSetReqUint8                                          
0001655b  ApiMac_mlmeSetSecurityReqStruct                                 
20000123  AppTaskId                                                       
00001be0  BoardGpioInitTable                                              
000150e5  Board_init                                                      
0000e40d  Board_initHook                                                  
000110a1  Board_sendExtFlashByte                                          
00013a35  Board_shutDownExtFlash                                          
000127e5  Board_wakeUpExtFlash                                            
20003978  ButtonObjects                                                   
000160a5  Button_Params_init                                              
00001f3c  Button_config                                                   
00001f28  Button_count                                                    
00001f4c  Button_defaultParams                                            
00010c55  Button_gpioCallbackFxn                                          
0000c199  Button_init                                                     
0000b165  Button_open                                                     
000164f1  Button_setCallback                                              
0000e40d  CC1352R1_LAUNCHXL_shutDownExtFlash                              
0001282d  CC1352R1_LAUNCHXL_wakeUpExtFlash                                
00001f1c  CONFIG_AESCCM_0_CONST                                           
00001f26  CONFIG_BTN_LEFT_CONST                                           
00001f27  CONFIG_BTN_RIGHT_CONST                                          
00001f24  CONFIG_DISPLAY_UART_CONST                                       
00001f1e  CONFIG_GPIO_BTN1_CONST                                          
00001f1f  CONFIG_GPIO_BTN2_CONST                                          
00001f21  CONFIG_GPIO_GLED_CONST                                          
00001f20  CONFIG_GPIO_RLED_CONST                                          
00001f2a  CONFIG_LED_GREEN_CONST                                          
00001f29  CONFIG_LED_RED_CONST                                            
00001f22  CONFIG_NVSINTERNAL_CONST                                        
000095d9  CUI_init                                                        
00015e0d  CUI_menuActionBack                                              
0000a23d  CUI_menuActionHelp                                              
000164f7  CUI_paramsInit                                                  
00009969  CUI_statusLinePrintf                                            
0000aaa9  CUI_statusLineResourceRequest                                   
00011ced  Cllc_addSecDevice                                               
2000168c  Cllc_associatedDevList                                          
200015b2  Cllc_devShortAddr                                               
200015b0  Cllc_events                                                     
00015595  Cllc_findDevice                                                 
0001629d  Cllc_getChanMask                                                
000160b5  Cllc_getDefaultKey                                              
000141cd  Cllc_getFormingPanId                                            
0000d83d  Cllc_init                                                       
00001631  Cllc_keySource                                                  
0000c0d5  Cllc_removeDevice                                               
0000fb85  Cllc_restoreNetwork                                             
000155b1  Cllc_securityFill                                               
0000f081  Cllc_securityInit                                               
00012dc9  Cllc_sendDisassociationRequest                                  
000155cd  Cllc_setChanMask                                                
00013a6d  Cllc_setJoinPermit                                              
20001604  Cllc_statistics                                                 
000163e1  ClockP_Params_init                                              
0001306f  ClockP_construct                                                
000130b1  ClockP_create                                                   
000162a9  ClockP_delete                                                   
00016563  ClockP_destruct                                                 
00016567  ClockP_getCpuFreq                                               
000162b5  ClockP_getSystemTickPeriod                                      
1002dc11  ClockP_getSystemTicks                                           
0001656b  ClockP_getTimeout                                               
000160c5  ClockP_isActive                                                 
0001656f  ClockP_setTimeout                                               
00016573  ClockP_start                                                    
00016577  ClockP_stop                                                     
20002056  Collector_events                                                
0000aba9  Collector_init                                                  
200020cc  Collector_macCallbacks                                          
0000b6c9  Collector_sendConfigRequest                                     
00013aa5  Collector_sendDeviceTypeRequest                                 
00013add  Collector_sendToggleLedRequest                                  
20002090  Collector_statistics                                            
0001621f  CryptoKeyPlaintext_initBlankKey                                 
0001622d  CryptoKeyPlaintext_initKey                                      
200039c8  CryptoResourceCC26XX_accessSemaphore                            
00011229  CryptoResourceCC26XX_constructRTOSObjects                       
20003dd0  CryptoResourceCC26XX_hwi                                        
20003a18  CryptoResourceCC26XX_operationSemaphore                         
20002a08  CryptoResourceCC26XX_pollingFlag                                
00015019  CryptoUtils_buffersMatch                                        
00009a8d  Csf_deviceUpdate                                                
200018ec  Csf_events                                                      
0000fced  Csf_getDevice                                                   
00010849  Csf_getDeviceExtAdd                                             
0000f89d  Csf_getDeviceItem                                               
0001467d  Csf_getDeviceShort                                              
000130f1  Csf_getNetworkInformation                                       
00012875  Csf_getNumDeviceListEntries                                     
00002d19  Csf_init                                                        
2000192c  Csf_keys                                                        
00002929  Csf_processEvents                                               
00010555  Csf_sendDisassociateMsg                                         
000141fd  Csf_setConfigClock                                              
00013e91  Csf_setTrackingClock                                            
0000de45  Csf_updateFrameCounter                                          
00001f1b  Display_count                                                   
10030ad1  FHAPI_SFDRxCb                                                   
10030501  FHAPI_completeRxCb                                              
1003035d  FHAPI_completeTxCb                                              
10030bad  FHAPI_getBitCount                                               
10030a81  FHAPI_getRemDT                                                  
10030b81  FHAPI_getTxChHoppingFunc                                        
10030a21  FHAPI_getTxParams                                               
100308d1  FHAPI_getTxParams_old                                           
10030809  FHAPI_reset                                                     
10030689  FHAPI_sendData                                                  
10030b51  FHAPI_setStateCb                                                
10030101  FHAPI_start                                                     
10030989  FHAPI_startBS                                                   
10030b11  FHAPI_stopAsync                                                 
10030cb5  FHDATA_CheckMinTxOffTime                                        
10031011  FHDATA_asyncMinTxOffTimerCb                                     
10031029  FHDATA_checkPktFromQueue                                        
10030fb5  FHDATA_chkASYNCStartReq                                         
10030f65  FHDATA_getASYNCDelay                                            
10030d61  FHDATA_getPktFromQueue                                          
10030bd1  FHDATA_procASYNCReq                                             
1003103d  FHDATA_procEDFEReq                                              
10030e89  FHDATA_purgePktFromQueue                                        
10030e05  FHDATA_purgeUnSupportedFrameTypes                               
10030efd  FHDATA_requeuePkt                                               
10031051  FHDATA_startEDFEReq                                             
10031065  FHDATA_startEDFETimer                                           
10030fed  FHDATA_updateCCA                                                
10031129  FHDH1CF_getBCChannelNum                                         
100312f5  FHDH1CF_getBcCh                                                 
10031209  FHDH1CF_getCh                                                   
1003125d  FHDH1CF_getChannelNum                                           
100312b1  FHDH1CF_getTxChannelNum                                         
10031069  FHDH1CF_hashword                                                
100311ad  FHDH1CF_mapChIdxChannel                                         
20003ab4  FHFSM_Dbg                                                       
0001657b  FHIEPATCH_extractHie                                            
0001657f  FHIEPATCH_extractPie                                            
00016583  FHIEPATCH_genHie                                                
00016587  FHIEPATCH_genPieContent                                         
0001658b  FHIEPATCH_getHieLen                                             
0001658f  FHIEPATCH_getPieContentLen                                      
000163eb  FHIEPATCH_getPieId                                              
00016593  FHIEPATCH_parseHie                                              
00016597  FHIEPATCH_parsePie                                              
20002410  FHIE_channelPlan                                                
1003230d  FHIE_extractHie                                                 
1003197d  FHIE_extractPie                                                 
10032905  FHIE_gen                                                        
1003248d  FHIE_genBTIE                                                    
10031fed  FHIE_genCommonInformation                                       
10032689  FHIE_genExcludedChannelMask                                     
100323cd  FHIE_genExcludedChannelRanges                                   
10031d91  FHIE_genHie                                                     
1003210d  FHIE_genPie                                                     
10031325  FHIE_genPieContent                                              
10032755  FHIE_genUTIE                                                    
10032519  FHIE_getCcaSfdTime                                              
100326f1  FHIE_getChannelPlan                                             
100327b1  FHIE_getCommonInformationLen                                    
10032859  FHIE_getExcludedChannelControl                                  
10032939  FHIE_getHie                                                     
10032619  FHIE_getHieLen                                                  
1003296d  FHIE_getLen                                                     
100328cf  FHIE_getPie                                                     
1003220d  FHIE_getPieContentLen                                           
10032599  FHIE_getPieLen                                                  
10032895  FHIE_getSubPie                                                  
10032805  FHIE_isChannelPlanValid                                         
10031ba9  FHIE_parseCommonInformation                                     
10031ec9  FHIE_parseHie                                                   
10031699  FHIE_parsePie                                                   
10032cf5  FHMGR_BCTimerEventUpd                                           
1003299d  FHMGR_bcTimerIsrCb                                              
10032d11  FHMGR_macCancelFHTimer                                          
10032d29  FHMGR_macGetElapsedFHTime                                       
10032c1d  FHMGR_macStartFHTimer                                           
10032cc9  FHMGR_macStartOneShotTimer                                      
10032d41  FHMGR_pendBcChUpdate                                            
10032d47  FHMGR_pendUcChUpdate                                            
10032bb5  FHMGR_ucTimerIsrCb                                              
10032c75  FHMGR_updateHopping                                             
10032b45  FHMGR_updateRadioBCChannel                                      
10032acd  FHMGR_updateRadioUCChannel                                      
10033119  FHNT_AddDeviceCB                                                
20003f3c  FHNT_Dbg                                                        
100337b1  FHNT_DelDeviceCB                                                
1003374d  FHNT_addOptEntry                                                
10033381  FHNT_addTempEUI                                                 
10033aa9  FHNT_assessTime                                                 
10033209  FHNT_createEntry                                                
100332c5  FHNT_createFixedEntry                                           
1003386d  FHNT_delTempIndex                                               
10033969  FHNT_getAvailEntry                                              
100339f9  FHNT_getEUI                                                     
10032fe1  FHNT_getEntry                                                   
100335f5  FHNT_getFixedEntry                                              
100338c1  FHNT_getFixedNTIndexFromTempIndex                               
10033671  FHNT_getNTIndexFromTempIndex                                    
100336e5  FHNT_getOptEntry                                                
100334c5  FHNT_getRemoveEntry                                             
10032ea1  FHNT_getRemoveEntryFromTemp                                     
1003355d  FHNT_getRemoveFixedEntry                                        
20003b74  FHNT_hnd                                                        
10033a75  FHNT_init                                                       
10033429  FHNT_initTempTable                                              
10032d4d  FHNT_purgeEntry                                                 
10033a3d  FHNT_purgeTimerIsrCb                                            
10033915  FHNT_putEntry                                                   
100339b1  FHNT_putFixedEntry                                              
10033811  FHNT_reset                                                      
20003858  FHNT_tableOpt                                                   
20003f24  FHNT_tempTable                                                  
20003640  FHPIB_db                                                        
00001498  FHPIB_defaults                                                  
10033ca5  FHPIB_get                                                       
10033d25  FHPIB_getIndex                                                  
10033cf5  FHPIB_getLen                                                    
10033d41  FHPIB_reset                                                     
10033ac9  FHPIB_set                                                       
10033d59  FHSM_event                                                      
10033dcd  FHUTIL_adjBackOffDur                                            
100343fd  FHUTIL_assert                                                   
10034411  FHUTIL_calcUfsi                                                 
100343e5  FHUTIL_compBfioTxTime                                           
1003441b  FHUTIL_elapsedTime                                              
10033f09  FHUTIL_getBcTxParams                                            
100341c1  FHUTIL_getBitCounts                                             
100342a9  FHUTIL_getCh0                                                   
10034219  FHUTIL_getChannelSpacing                                        
100340cd  FHUTIL_getCurBfio                                               
10034261  FHUTIL_getCurUfsi                                               
100343c9  FHUTIL_getElapsedTime                                           
10034149  FHUTIL_getGuardTime                                             
100342e1  FHUTIL_getMaxChannels                                           
1003404d  FHUTIL_getTxChannel                                             
10034319  FHUTIL_getTxUfsi                                                
100343a1  FHUTIL_getUcChannel                                             
1003441f  FHUTIL_noAction                                                 
10034349  FHUTIL_updateBcNumChannels                                      
10034375  FHUTIL_updateUcNumChannels                                      
10033fc9  FHUTIl_updateBTIE                                               
20002934  FH_FSM                                                          
20003efc  FH_PibTbl                                                       
0000095c  FH_ROM_Flash_JT                                                 
200036cc  FH_hnd                                                          
0000112d  FH_stateMatrix                                                  
20003f4c  FH_test_var                                                     
20002954  FH_txTiming                                                     
10033d9d  FSM_transaction_debug                                           
00001eb8  GPIOCC26XX_config                                               
00012e0d  GPIO_disableInt                                                 
00012185  GPIO_enableInt                                                  
000160d5  GPIO_getConfig                                                  
0001422d  GPIO_hwiIntFxn                                                  
0000c199  GPIO_init                                                       
00014af9  GPIO_read                                                       
0001425d  GPIO_setCallback                                                
0000a34d  GPIO_setConfig                                                  
00011289  GPIO_write                                                      
20001c68  HEAPMGR_SIZE                                                    
0000003c  HMAC_ROM_Flash_JT                                               
000160e5  HwiP_Params_init                                                
00013631  HwiP_construct                                                  
0001659b  HwiP_destruct                                                   
0001659f  HwiP_disable                                                    
000165a3  HwiP_enableInterrupt                                            
000165a7  HwiP_post                                                       
1002ec47  HwiP_restore                                                    
00015145  HwiP_setFunc                                                    
000165ab  HwiP_setPriority                                                
000018e0  ICALL_OSAL_ROM_Flash_JT                                         
UNDEFED   ITM_flush                                                       
UNDEFED   ITM_restore                                                     
20003588  LEDObjects                                                      
0001603d  LED_Params_init                                                 
00001f5c  LED_config                                                      
00001f2b  LED_count                                                       
00002080  LED_defaultParams                                               
0000a45d  LED_open                                                        
0001366f  LED_setBrightnessLevel                                          
00013729  LED_setOff                                                      
00013e23  LED_setOn                                                       
00011bed  LED_startBlinking                                               
0001503b  LED_stopBlinking                                                
00015915  LED_toggle                                                      
00001320  LMAC_ROM_Flash_JT                                               
00015e21  List_clearList                                                  
0001505d  List_get                                                        
00014a51  List_insert                                                     
00014cb1  List_put                                                        
00014cd7  List_putHead                                                    
00014cfd  List_remove                                                     
00015e35  MAC_CbackCheckPending                                           
0000a015  MAC_CbackEvent                                                  
00015e49  MAC_CbackQueryRetransmit                                        
10039cbd  MAC_EnableFH                                                    
1003a1b9  MAC_GetPHYParamReq                                              
100399cd  MAC_Init                                                        
10034849  MAC_InitBeaconCoord                                             
10035159  MAC_InitBeaconDevice                                            
1003624d  MAC_InitCoord                                                   
10037c45  MAC_InitDevice                                                  
10038e15  MAC_InitFH                                                      
10036e05  MAC_McpsDataAlloc                                               
10036729  MAC_McpsDataReq                                                 
10036455  MAC_McpsPurgeReq                                                
10037ea5  MAC_MlmeAssociateReq                                            
10036471  MAC_MlmeAssociateRsp                                            
10039dc1  MAC_MlmeDisassociateReq                                         
10039ce1  MAC_MlmeFHGetReq                                                
10039d01  MAC_MlmeFHGetReqSize                                            
10039d21  MAC_MlmeFHSetReq                                                
1003b159  MAC_MlmeGetPointerSecurityReq                                   
1003a169  MAC_MlmeGetReq                                                  
1003a275  MAC_MlmeGetReqSize                                              
1003af09  MAC_MlmeGetSecurityReq                                          
1003b101  MAC_MlmeGetSecurityReqSize                                      
1003648d  MAC_MlmeOrphanRsp                                               
10037ebd  MAC_MlmePollReq                                                 
100391c9  MAC_MlmeResetReq                                                
1003a689  MAC_MlmeScanReq                                                 
10039ec5  MAC_MlmeSetReq                                                  
1003a99d  MAC_MlmeSetSecurityReq                                          
100364e1  MAC_MlmeStartReq                                                
10039ddd  MAC_MlmeSyncReq                                                 
10039df5  MAC_MlmeWSAsyncReq                                              
000162c1  MAC_PwrMode                                                     
00012e51  MAC_PwrNextTimeout                                              
0000c909  MAC_PwrOffReq                                                   
00013765  MAC_PwrOnReq                                                    
10039e55  MAC_RandomByte                                                  
0000e49d  MAC_ResumeReq                                                   
1003a1f9  MAC_SetPHYParamReq                                              
00015165  MAC_SrcMatchAckAllPending                                       
0000cb25  MAC_SrcMatchAddEntry                                            
00015e5d  MAC_SrcMatchCheckAllPending                                     
00014a7b  MAC_SrcMatchDeleteEntry                                         
0000ea25  MAC_SrcMatchEnable                                              
10039d41  MAC_StartFH                                                     
10039c69  MAC_YieldReq                                                    
000160f5  Main_assertHandler                                              
200009e5  Main_assertReason                                               
000164fd  Main_excHandler                                                 
20000a4c  Main_user1Cfg                                                   
000162cd  NOROM_CPUcpsid                                                  
000162d9  NOROM_CPUcpsie                                                  
00016503  NOROM_CPUdelay                                                  
000155e9  NOROM_ChipInfo_GetChipFamily                                    
000105c1  NOROM_ChipInfo_GetChipType                                      
00012e95  NOROM_ChipInfo_GetHwRevision                                    
000159cd  NOROM_ChipInfo_GetPackageType                                   
00015605  NOROM_FlashProgram                                              
00015621  NOROM_FlashSectorErase                                          
0000eaad  NOROM_OSCHF_AttemptToSwitchToXosc                               
000108b1  NOROM_OSCHF_SwitchToRcOscTurnOffXosc                            
00014d49  NOROM_OSCHF_TurnOnXosc                                          
00013131  NOROM_OSC_HPOSCRelativeFrequencyOffsetGet                       
00011d41  NOROM_PRCMPowerDomainsAllOff                                    
000124a1  NOROM_PRCMPowerDomainsAllOn                                     
00010089  NOROM_RFCAnaDivTxOverride                                       
00015e71  NOROM_RFCCpeIntGetAndClear                                      
00002d17  NOROM_RFCCpePatchReset                                          
00014d6d  NOROM_RFCDoorbellSendTo                                         
00016105  NOROM_RFCHwIntGetAndClear                                       
00014b21  NOROM_RFCOverrideSearch                                         
000165af  NOROM_RFCOverrideUpdate                                         
000128bd  NOROM_RFCSynthPowerDown                                         
0000d08d  NOROM_SetupTrimDevice                                           
00013ec5  NOROM_SysCtrlIdle                                               
00007f11  NOROM_SysCtrlStandby                                            
20002290  NVOCMP_nvHandle                                                 
20002263  NVOCMP_size                                                     
0001649b  NVSCC26XX_close                                                 
00016509  NVSCC26XX_control                                               
000142bd  NVSCC26XX_erase                                                 
00001c34  NVSCC26XX_fxnTable                                              
00015675  NVSCC26XX_getAttrs                                              
00011de9  NVSCC26XX_init                                                  
00015691  NVSCC26XX_lock                                                  
0000f41d  NVSCC26XX_open                                                  
00012ed9  NVSCC26XX_read                                                  
000162f1  NVSCC26XX_unlock                                                
00009101  NVSCC26XX_write                                                 
00001ffc  NVS_config                                                      
00001f23  NVS_count                                                       
000020d0  NVS_defaultParams                                               
000163f5  NVS_erase                                                       
000163ff  NVS_getAttrs                                                    
00014791  NVS_init                                                        
0001294d  NVS_open                                                        
00016409  NVS_read                                                        
0001623b  NVS_write                                                       
000154a5  OsalPort_buildUint32                                            
00010d1d  OsalPort_clearEvent                                             
0001592f  OsalPort_enterCS                                                
00013171  OsalPort_free                                                   
00015d75  OsalPort_leaveCS                                                
0000e6dd  OsalPort_malloc                                                 
000151a5  OsalPort_memcmp                                                 
0001507f  OsalPort_msgAllocate                                            
000151c5  OsalPort_msgDeallocate                                          
000146ab  OsalPort_msgDequeue                                             
000146d9  OsalPort_msgEnqueue                                             
000136ad  OsalPort_msgEnqueueMax                                          
00014169  OsalPort_msgExtract                                             
00015a15  OsalPort_msgPush                                                
000116a5  OsalPort_msgReceive                                             
00012539  OsalPort_msgSend                                                
00010d81  OsalPort_pwrmgrTaskState                                        
00010981  OsalPort_registerTask                                           
00011701  OsalPort_setEvent                                               
0000e769  OsalPort_setTimer                                               
00016309  OsalPort_stopTimer                                              
00016115  PINCC26XX_getPinCount                                           
00002088  PINCC26XX_hwAttrs                                               
000142ed  PINCC26XX_setMux                                                
00010169  PIN_add                                                         
000154c3  PIN_close                                                       
00006305  PIN_init                                                        
0000cd31  PIN_open                                                        
00016315  PIN_registerIntCb                                               
0001175d  PIN_remove                                                      
00013b4d  PIN_setConfig                                                   
000137dd  PIN_setInterrupt                                                
00012995  PIN_setOutputEnable                                             
00013819  PIN_setOutputValue                                              
00015e85  PWM_Params_init                                                 
00016413  PWM_close                                                       
UNDEFED   PWM_config                                                      
UNDEFED   PWM_count                                                       
00001e58  PWM_defaultParams                                               
00012f61  PWM_init                                                        
000131b1  PWM_open                                                        
0001641d  PWM_setDuty                                                     
00016427  PWM_start                                                       
000129dd  PowerCC26X2_RCOSC_clockFunc                                     
0000fdd5  PowerCC26X2_auxISR                                              
00015e99  PowerCC26X2_calibrate                                           
00001ecc  PowerCC26X2_config                                              
000119dd  PowerCC26X2_initiateCalibration                                 
20001dd4  PowerCC26X2_module                                              
00015949  PowerCC26XX_calibrate                                           
000131f1  PowerCC26XX_isStableXOSC_HF                                     
000156c9  PowerCC26XX_schedulerDisable                                    
000156e5  PowerCC26XX_schedulerRestore                                    
0000c00d  PowerCC26XX_standbyPolicy                                       
20003f50  PowerCC26XX_swiKey                                              
00012a25  PowerCC26XX_switchXOSC_HF                                       
20003f54  PowerCC26XX_taskKey                                             
00016321  Power_getConstraintMask                                         
0001632d  Power_getDependencyCount                                        
000154e1  Power_getTransitionLatency                                      
00015a2d  Power_idleFunc                                                  
00007805  Power_init                                                      
00014b99  Power_registerNotify                                            
0001431d  Power_releaseConstraint                                         
0000c3e1  Power_releaseDependency                                         
0001434d  Power_setConstraint                                             
0000c799  Power_setDependency                                             
00006b9d  Power_sleep                                                     
00015205  Power_unregisterNotify                                          
2000010c  RAM_MAC_BASE_ADDR                                               
00002008  RFCC26XX_hwAttrs                                                
00002090  RFCC26XX_schedulerPolicy                                        
00015ead  RF_Params_init                                                  
00015ec1  RF_RatConfigCompare_init                                        
000164a3  RF_RatConfigOutput_init                                         
00015701  RF_ScheduleCmdParams_init                                       
00011a35  RF_TxPowerTable_findValue                                       
00015a45  RF_cancelCmd                                                    
00008c11  RF_close                                                        
20001acc  RF_cmdFsRx                                                      
20001ae4  RF_cmdFsTx                                                      
000013ec  RF_cmdFs_2gfsk50kbps154g                                        
20001b6c  RF_cmdIEEECsma                                                  
20001c0c  RF_cmdIEEERx                                                    
20001afc  RF_cmdIEEETx                                                    
20001a98  RF_cmdNop                                                       
20001aa8  RF_cmdNopFg                                                     
20001b14  RF_cmdPropCs                                                    
20001b30  RF_cmdPropCsSlotted                                             
00001404  RF_cmdPropCs_2gfsk50kbps154g                                    
20001bac  RF_cmdPropRadioDivSetup                                         
00001440  RF_cmdPropRadioDivSetup_2gfsk50kbps154g                         
20001bdc  RF_cmdPropRxAdv                                                 
00001468  RF_cmdPropRxAdv_2gfsk50kbps154g                                 
20001b8c  RF_cmdPropTxAdv                                                 
00001420  RF_cmdPropTxAdv_2gfsk50kbps154g                                 
20001b4c  RF_cmdRadioSetup                                                
20001ab8  RF_cmdRxAckCmd                                                  
0000b965  RF_control                                                      
000165b3  RF_defaultExecutionPolicy                                       
00011c43  RF_defaultSubmitPolicy                                          
00015ee9  RF_flushCmd                                                     
0001604f  RF_getCmdOp                                                     
0001062d  RF_getCurrentTime                                               
0000df6d  RF_getInfo                                                      
00015755  RF_getRssi                                                      
0000ec45  RF_getTxPower                                                   
2000250c  RF_handle                                                       
00005d51  RF_open                                                         
20002518  RF_params                                                       
0000ba3d  RF_pendCmd                                                      
00016339  RF_powerConstraintGet                                           
00013bbd  RF_powerConstraintRelease                                       
00015771  RF_powerConstraintSet                                           
200022d8  RF_prop_2gfsk50kbps154g                                         
00015efd  RF_ratCompare                                                   
000101d9  RF_ratDisableChannel                                            
0000d5bd  RF_requestAccess                                                
00016515  RF_runDirectCmd                                                 
0001651b  RF_runImmediateCmd                                              
0000572d  RF_scheduleCmd                                                  
000152a5  RF_setTxPower                                                   
0000fe49  RF_yield                                                        
000005a4  ROM_constStruct                                                 
00001afc  ROM_externFuncPtrs                                              
20001f44  ROM_stateStruct                                                 
00013231  Random_getNumber                                                
00010249  Random_seedAutomatic                                            
00011b3d  ResetISR                                                        
00016061  RingBuf_construct                                               
00013271  RingBuf_get                                                     
00012d3d  RingBuf_put                                                     
UNDEFED   SHT$$INIT_ARRAY$$Base                                           
UNDEFED   SHT$$INIT_ARRAY$$Limit                                          
000147e9  SemaphoreP_constructBinary                                      
00014815  SemaphoreP_createBinary                                         
00016345  SemaphoreP_delete                                               
000165b7  SemaphoreP_destruct                                             
00016073  SemaphoreP_pend                                                 
000165bb  SemaphoreP_post                                                 
00015f25  StructRingBuf_construct                                         
000125d1  StructRingBuf_get                                               
00016257  StructRingBuf_isFull                                            
00011e91  StructRingBuf_put                                               
00016145  SwiP_Params_init                                                
00011ee5  SwiP_construct                                                  
000165bf  SwiP_destruct                                                   
000165c3  SwiP_disable                                                    
000165c7  SwiP_getTrigger                                                 
000165cb  SwiP_or                                                         
1002db61  SwiP_restore                                                    
00015a75  SwiP_setPriority                                                
00015f39  TRNG_close                                                      
0000febd  TRNG_construct                                                  
00001f6c  TRNG_defaultParams                                              
0000c9bd  TRNG_generateEntropy                                            
00011ae5  TRNG_init                                                       
00015f4d  Temperature_getTemperature                                      
000143ad  Temperature_unregisterNotify                                    
0000f291  UARTCC26XX_close                                                
00010e49  UARTCC26XX_control                                              
00001c5c  UARTCC26XX_fxnTable                                             
00008319  UARTCC26XX_hwiIntFxn                                            
000164ab  UARTCC26XX_init                                                 
00007ae5  UARTCC26XX_open                                                 
00008e8d  UARTCC26XX_read                                                 
0001261d  UARTCC26XX_readCancel                                           
00016521  UARTCC26XX_readPolling                                          
00011165  UARTCC26XX_swiIntFxn                                            
0000b7a9  UARTCC26XX_write                                                
0000e379  UARTCC26XX_writeCancel                                          
00016527  UARTCC26XX_writePolling                                         
00015aa5  UART_Params_init                                                
00016431  UART_close                                                      
00002014  UART_config                                                     
0001643b  UART_control                                                    
00001f25  UART_count                                                      
00001d20  UART_defaultParams                                              
00012fa5  UART_init                                                       
000132f1  UART_open                                                       
00016445  UART_read                                                       
0001644f  UART_readCancel                                                 
00016459  UART_write                                                      
00016463  UART_writeCancel                                                
00012ab5  UtilTimer_construct                                             
00016155  UtilTimer_isActive                                              
000164b3  UtilTimer_setTimeout                                            
000165cf  UtilTimer_start                                                 
000165d3  UtilTimer_stop                                                  
000164bb  Util_breakUint32                                                
000164c3  Util_buildUint16                                                
00016265  Util_buildUint32                                                
00015da1  Util_clearEvent                                                 
0001646d  Util_copyExtAddr                                                
0001652d  Util_hiUint16                                                   
000165d7  Util_loUint16                                                   
00015db7  Util_setEvent                                                   
00000000  __ASM__                                                         
0000007a  __ISA__                                                         
0000008d  __PLAT__                                                        
20014000  __STACK_END                                                     
00000560  __STACK_SIZE                                                    
20014000  __STACK_TOP                                                     
000000b4  __TARG__                                                        
00016d20  __TI_CINIT_Base                                                 
00016d50  __TI_CINIT_Limit                                                
00016ce8  __TI_Handler_Table_Base                                         
00016cf4  __TI_Handler_Table_Limit                                        
0000d65d  __TI_auto_init                                                  
00010a51  __TI_decompress_lzss                                            
00016273  __TI_decompress_none                                            
ffffffff  __TI_pprof_out_hndl                                             
ffffffff  __TI_prof_data_size                                             
ffffffff  __TI_prof_data_start                                            
00016878  __TI_static_base__                                              
00016369  __TI_zero_init                                                  
000000da  __TRDR__                                                        
000164cd  __aeabi_errno_addr                                              
0000e40b  __aeabi_idiv0                                                   
0000e40b  __aeabi_ldiv0                                                   
00010475  __aeabi_ldivmod                                                 
00015c6d  __aeabi_lmul                                                    
0000fb09  __aeabi_memclr                                                  
0000fb09  __aeabi_memclr4                                                 
0000fb09  __aeabi_memclr8                                                 
0000daad  __aeabi_memcpy                                                  
0000daad  __aeabi_memcpy4                                                 
0000daad  __aeabi_memcpy8                                                 
0000fb0b  __aeabi_memset                                                  
0000fb0b  __aeabi_memset4                                                 
0000fb0b  __aeabi_memset8                                                 
00013531  __aeabi_uidiv                                                   
00013531  __aeabi_uidivmod                                                
0000ddad  __aeabi_uldivmod                                                
ffffffff  __binit__                                                       
ffffffff  __c_args__                                                      
00057fa8  __ccfg                                                          
20013aa0  __stack                                                         
00015abd  _args_main                                                      
00011b3d  _c_int00                                                        
00000f2c  _ctypes_                                                        
200027cc  _hposcCoeffs                                                    
2000294c  _lock                                                           
00007683  _nop                                                            
00016351  _register_lock                                                  
0001635d  _register_unlock                                                
20002950  _unlock                                                         
0000131f  aesccmCC26XXHWAttrs                                             
20003e24  aesccmCC26XXObjects                                             
20002638  appEvents                                                       
20002648  appSem                                                          
200023b8  appSubMenu                                                      
200009fc  appTask                                                         
00057539  appTaskFxn                                                      
20002631  appTaskId                                                       
00016533  assertHandler                                                   
00012669  atoi                                                            
200029f1  bInSwi                                                          
ffffffff  binit                                                           
2000191c  collectorStatusLine                                             
20002538  commissionSubMenu                                               
20002578  configureSubMenu                                                
000115e9  convertTxOptions                                                
00015963  copyApiMacAddrToMacAddr                                         
000126b5  copy_in                                                         
000152c5  crc_update                                                      
20001940  csfCuiHndl                                                      
200025b8  csfMainMenu                                                     
200026bc  csmPhy                                                          
200010dc  cuiMultiMenu                                                    
20003a68  cuiMultiMenuData                                                
20001920  deviceStatusLine                                                
20003af6  driverlib_release_0_58048                                       
200032bc  enhancedAckBuf                                                  
200029f4  errno                                                           
2000234c  fhObject                                                        
00002068  fhSupFrameTypes                                                 
20002262  gAction                                                         
20001928  genericStatusLine                                               
200028e8  gpioCallbackFunctions                                           
200028f8  gpioPinConfigs                                                  
20013aa0  heapEnd                                                         
20003f79  heapStart                                                       
20001c5c  heapmgrMemFreeError                                             
20001c58  heapmgrMemFreeTotal                                             
00002020  inPinTypes                                                      
20002124  lastPostCmd                                                     
20002918  lastRatChanA                                                    
20002919  lastRatChanB                                                    
200027b8  macAckDbg                                                       
200027f0  macActionSet                                                    
200029e7  macAddrSize                                                     
10036ba1  macAllocTxBuffer                                                
10037699  macApiAssociateReq                                              
10036399  macApiAssociateRsp                                              
10039e0d  macApiBadState                                                  
0000cddd  macApiBeaconStartReq                                            
10036ef5  macApiDataReq                                                   
10039955  macApiDisassociateReq                                           
100360fd  macApiOrphanRsp                                                 
10039b81  macApiPending                                                   
10037ab9  macApiPollReq                                                   
10035eb1  macApiPurgeReq                                                  
0000a9a3  macApiPwrOnReq                                                  
1003a2ad  macApiScanReq                                                   
0000c25d  macApiStartReq                                                  
10034bcd  macApiSyncReq                                                   
10039e25  macApiUnsupported                                               
10039a99  macApiWSAsyncReq                                                
10037c99  macAssocDataReq                                                 
10037b25  macAssocDataReqComplete                                         
1003792d  macAssocDataRxInd                                               
10037ced  macAssocFailed                                                  
10037db5  macAssocFrameResponseTimeout                                    
10037e85  macAssocRxDisassoc                                              
10037d79  macAssociateCnf                                                 
000016a4  macAssociatingSt                                                
00002070  macAuthTagLen                                                   
100371e1  macAutoPendAddSrcMatchTableEntry                                
10036fc5  macAutoPendMaintainSrcMatchTable                                
0000c621  macAutoPoll                                                     
10039e69  macBcTimerHandler                                               
20003d5c  macBeacon                                                       
10034a25  macBeaconBattLifeCallback                                       
100355dd  macBeaconCheckSched                                             
10034715  macBeaconCheckStartTime                                         
0000ce89  macBeaconCheckTxTime                                            
10034921  macBeaconClearIndirect                                          
20003b38  macBeaconCoord                                                  
20003f2c  macBeaconCoordAction1                                           
10034a01  macBeaconCoordReset                                             
20003c18  macBeaconDevice                                                 
20003ea4  macBeaconDeviceAction                                           
10035575  macBeaconInit                                                   
20002838  macBeaconMargin                                                 
20002664  macBeaconPayload                                                
1003495d  macBeaconPeriodCallback                                         
100346a1  macBeaconPrepareCallback                                        
10035535  macBeaconRequeue                                                
100355a9  macBeaconReset                                                  
100348e1  macBeaconSchedRequested                                         
100349d5  macBeaconSetPrepareTime                                         
10035369  macBeaconSetSched                                               
100347ed  macBeaconSetupBroadcast                                         
10035421  macBeaconSetupCap                                               
10034545  macBeaconStartContinue                                          
10035229  macBeaconStartFrameResponseTimer                                
10035289  macBeaconStopTrack                                              
10035065  macBeaconSyncLoss                                               
10034781  macBeaconTxCallback                                             
0000d6fd  macBlacklistChecking                                            
10035355  macBroadcastPendCallback                                        
10037549  macBuildAssociateReq                                            
1003560d  macBuildAssociateRsp                                            
1003576d  macBuildBeacon                                                  
100394f1  macBuildBeaconNotifyInd                                         
10038c1d  macBuildCommonReq                                               
00009239  macBuildDataFrame                                               
10038f61  macBuildDisassociateReq                                         
100388f1  macBuildHeader                                                  
0000b889  macBuildHeaderIes                                               
100380d9  macBuildPayloadCoexistIe                                        
10037ee9  macBuildPayloadIes                                              
10035bb5  macBuildPendAddr                                                
10035d4d  macBuildRealign                                                 
10039855  macBuildWSAsyncMsg                                              
100392e1  macBuildWSAsyncReq                                              
000122c5  macCanSleep                                                     
00001fe4  macCbackEventTbl                                                
100385f1  macCbackForEvent                                                
0000e5bd  macCcmDecrypt                                                   
0000e881  macCcmEncrypt                                                   
0000d3d1  macCcmStarInverseTransform                                      
0000bbed  macCcmStarTransform                                             
20002908  macCfg                                                          
10037361  macCheckIndPacket                                               
100350ed  macCheckPendAddr                                                
0001597d  macCheckPhyMode                                                 
00013f61  macCheckPhyRate                                                 
100374e1  macCheckSched                                                   
00001fac  macCmdBufSize                                                   
00001bfc  macCmdIncludeFHIe                                               
00002044  macCmdLen                                                       
100393ed  macCommStatusInd                                                
10039c95  macConflictSyncLossInd                                          
20003c7c  macCoord                                                        
20003f34  macCoordAction1                                                 
20003dec  macCoordAction2                                                 
20003eb4  macCoordAction3                                                 
10039bc1  macCoordAddrCmp                                                 
10039a41  macCoordDestAddrCmp                                             
10035c85  macCoordReset                                                   
00001b44  macCryptoDriverTable                                            
20003f58  macCryptoDrvTblPtr                                              
200027b4  macCsmaRtcTimerId                                               
00015b35  macCsmaTimerExpiry                                              
20003ec4  macData                                                         
200026b8  macDataBeaconRequeue                                            
200026b0  macDataCheckSched                                               
200026b4  macDataCheckTxTime                                              
200026a0  macDataRequeueIndirect                                          
10037279  macDataReset                                                    
200026a4  macDataRxBeaconCritical                                         
100373b9  macDataRxInd                                                    
10037455  macDataRxMemAlloc                                               
10037515  macDataRxMemFree                                                
100374c1  macDataSend                                                     
200026ac  macDataSetSched                                                 
200026a8  macDataTxBeaconComplete                                         
10037079  macDataTxComplete                                               
20003ed4  macDataTxDelay                                                  
10037529  macDataTxDelayCallback                                          
1003712d  macDataTxEnqueue                                                
2000269c  macDataTxIndirect                                               
100368cd  macDataTxSend                                                   
100374fd  macDataTxTimeAvailable                                          
10039d61  macDefaultAction                                                
10039ae9  macDestAddrCmp                                                  
10039b35  macDestSAddrCmp                                                 
20003ca8  macDevice                                                       
20003bac  macDeviceAction1                                                
20003e7c  macDeviceAction2                                                
00012d83  macDeviceDescriptorLookup                                       
100377a1  macDeviceReset                                                  
100397c9  macDisassocComplete                                             
0000a67d  macEdScanISR                                                    
1003871d  macExecute                                                      
10037479  macFrameDuration                                                
1003749d  macFrameDurationIeee                                            
100372f5  macFrameDurationSubG                                            
20002164  macFrmFilter                                                    
2000291c  macFsCmdActive                                                  
10039eb9  macGetCSMPhy                                                    
10039c35  macGetCoordAddress                                              
1003bb81  macGetEUI                                                       
1003ba75  macGetEUIIndex                                                  
10039d81  macGetMyAddrMode                                                
0000c6dd  macGetRFCmdDuration                                             
000152e5  macGetRadioState                                                
000113a9  macGetRadioTxPowerReg                                           
1003a29d  macIEEEGetPhyDesc                                               
00001f8c  macIEEEPhyTable                                                 
00001716  macIdleSt                                                       
1003842b  macIeCoexistIePresent                                           
100384e5  macIeFreeList                                                   
0000705d  macIncomingFrameSecurity                                        
00057e09  macIncomingFrameSecurityMaterialRetrieval                       
00011f39  macIncomingKeyUsagePolicyChecking                               
100352cd  macIncomingNonSlottedTx                                         
0000e095  macIncomingSecurityLevelChecking                                
100358c5  macIndirectExpire                                               
100361e5  macIndirectMark                                                 
10036171  macIndirectRequeueFrame                                         
10035e09  macIndirectSend                                                 
10036085  macIndirectTxFrame                                              
10039e7d  macIsCsmOperational                                             
0000eddd  macKeyDescriptorLookup                                          
000020c8  macKeySourceLen                                                 
00009ccd  macLowLevelBufferInit                                           
00013f95  macLowLevelDiags                                                
00016375  macLowLevelReset                                                
00016381  macLowLevelResume                                               
000133b1  macLowLevelYield                                                
200021c0  macMRFSKGenPhyTable                                             
1003a115  macMRFSKGetPhyDesc                                              
00001a64  macMRFSKStdPhyTable                                             
20003f08  macMain                                                         
10038899  macMainReserve                                                  
10038791  macMainReset                                                    
100388e1  macMainSetTaskId                                                
0000be6f  macMcuBitReverse                                                
00014be9  macMcuInit                                                      
00015997  macMcuLongDiv                                                   
00015f9d  macMcuOverflowCapture                                           
0000f51d  macMcuOverflowSetCompare                                        
0000ee65  macMcuOverflowSetPeriod                                         
00016477  macMcuRandomByte                                                
000157a9  macMcuTimerCapture                                              
20003af7  macMgmt                                                         
20003c4c  macMgmtAction1                                                  
20003e90  macMgmtAction2                                                  
0000c561  macMgmtReset                                                    
100383c5  macMlmeSubIePresent                                             
10039ec1  macNoAction                                                     
000157c5  macNopBackoffTimerExpiry                                        
0000aca5  macOutgoingFrameKeyDescRetrieval                                
0000b41d  macOutgoingFrameSecurity                                        
10034999  macOutgoingNonSlottedTx                                         
10037ed5  macPanConflictComplete                                          
20003f42  macPanCoordinator                                               
1003818d  macParseHeaderIes                                               
1003827d  macParsePayloadIes                                              
100364a9  macPendAddrLen                                                  
20003f43  macPhyChannel                                                   
20002510  macPhyTxPower                                                   
20003754  macPib                                                          
000165df  macPibCheckByPatch                                              
00001524  macPibDefaults                                                  
000154ff  macPibIndex                                                     
1003a239  macPibReset                                                     
00001227  macPibTbl                                                       
10037e3d  macPollCnf                                                      
10037b91  macPollDataReqComplete                                          
100379b1  macPollDataRxInd                                                
10037bed  macPollFrameResponseTimeout                                     
10037e61  macPollRxAssocRsp                                               
10037de9  macPollRxDisassoc                                               
00001788  macPollingSt                                                    
2000275c  macPrevPeriodRatCount                                           
20003f70  macPwr                                                          
0001638d  macPwrReset                                                     
00004735  macPwrVote                                                      
200028bc  macRadioAckFrame                                                
200028b2  macRadioAckIeeeFrame                                            
000165e3  macRadioComputeLQI                                              
00003ed1  macRadioCsmaTxCb                                                
000157e1  macRadioEnergyDetectStop                                        
000157fd  macRadioInit                                                    
00009709  macRadioInitIeee                                                
00005515  macRadioInitSubG                                                
000086fd  macRadioLbtTxCb                                                 
00012b8d  macRadioNeedAdjustPower                                         
00016477  macRadioRandomByte                                              
00011f8d  macRadioSetChannel                                              
00011fe1  macRadioSetChannelRx                                            
00013fc9  macRadioSetIEEEAddr                                             
00012315  macRadioSetPanCoordinator                                       
000148c5  macRadioSetPanID                                                
0000de43  macRadioSetRE                                                   
000148f1  macRadioSetShortAddr                                            
00015b4d  macRadioSetTxPower                                              
0000d975  macRadioStartScan                                               
00012bd5  macRadioStopScan                                                
00014e69  macRadioSwInit                                                  
000165e7  macRadioTxBOBoundary                                            
00010699  macRadioTxBackoffBoundary                                       
0000e90d  macRadioTxEnhAckCb                                              
00015819  macRadioTxGo                                                    
00012701  macRadioTxHandleAck                                             
00007979  macRadioTxPrepCsmaUnslotted                                     
0000d475  macRadioTxPrepLbt                                               
00011b95  macRadioTxRequestTxAck                                          
0000e129  macRadioUpdateChannel                                           
0000e1bd  macRadioUpdateChannelRx                                         
0000d519  macRadioUpdateTxPower                                           
0000f59d  macRadioWakeupCb                                                
200029f3  macRadioYielded                                                 
0000e251  macRatCb_A                                                      
000133f1  macRatCb_B                                                      
00013ffd  macRatDisableChannelB                                           
00016399  macRegisterSfdDetect                                            
20002922  macReqAccErrCnt                                                 
2000291e  macReqAccessCnt                                                 
20002920  macReqAccessTimeCnt                                             
00010f11  macRequestBackoff                                               
20003e08  macReset                                                        
0000194c  macRfDriverTable                                                
20002120  macRfDrvTblPtr                                                  
00015835  macRxAckTxDoneCallback                                          
20003f71  macRxActive                                                     
10037871  macRxAssocRsp                                                   
100362b1  macRxAssociateReq                                               
000165eb  macRxBackoffHandler                                             
00015b65  macRxBackoffTimerExpiry                                         
100395bd  macRxBeacon                                                     
0000684d  macRxBeaconCritical                                             
10036419  macRxBeaconReq                                                  
000030c9  macRxCb                                                         
100373fd  macRxCheckMACPendingCallback                                    
1003742d  macRxCheckPendingCallback                                       
2000291a  macRxCmdActive                                                  
10036cd9  macRxCompleteCallback                                           
10037a35  macRxCoordRealign                                               
20003ce0  macRxDataEntryOffset                                            
20003cf4  macRxDataEntryQueue                                             
10035f55  macRxDataReq                                                    
00012365  macRxDisable                                                    
100398d9  macRxDisassoc                                                   
00014c11  macRxEnable                                                     
20003f72  macRxEnableFlags                                                
20003cd4  macRxFilter                                                     
00056001  macRxFrameIsr                                                   
00010b21  macRxHaltCleanup                                                
0001443d  macRxHardDisable                                                
00013431  macRxNokIsr                                                     
00015305  macRxOff                                                        
0000f315  macRxOffRequest                                                 
0000fa11  macRxOn                                                         
00015b7d  macRxOnRequest                                                  
10036355  macRxOrphan                                                     
20003f73  macRxOutgoingAckFlag                                            
20002154  macRxOutputIeee                                                 
20002148  macRxOutputSubG                                                 
100364c5  macRxPanConflict                                                
2000291d  macRxPreempted                                                  
000163a5  macRxSequenceNum                                                
0001446d  macRxSoftDisable                                                
0001491d  macRxSoftEnable                                                 
20003f5c  macRxSymbol                                                     
200038d4  macScan                                                         
20003e3c  macScanAction                                                   
1003a931  macScanCnfInit                                                  
1003a839  macScanComplete                                                 
1003a96d  macScanFailedInProgress                                         
0000a78d  macScanNextChan                                                 
1003a599  macScanRxBeacon                                                 
0000af89  macScanRxCoordRealign                                           
1003a8b9  macScanStartTimer                                               
000017fa  macScanningSt                                                   
10039e91  macSecCpy                                                       
20003af8  macSecurityPib                                                  
1003b199  macSecurityPibIndex                                             
1003ac6d  macSecurityPibReset                                             
000019b8  macSecurityPibTbl                                               
2000013c  macSem                                                          
10038501  macSendDataMsg                                                  
0001274d  macSendFsCmd                                                    
100386a1  macSendMsg                                                      
00001e88  macSendMsgBufSize                                               
00001ff0  macSendMsgDataSize                                              
000052f9  macSendReceiveCmdIeee                                           
0000593d  macSendReceiveCmdSubG                                           
00011815  macSetDefaultsByPatch                                           
10039095  macSetDefaultsByPhyID                                           
10039bfd  macSetDefaultsByRE                                              
10038861  macSetEvent                                                     
10038845  macSetEvent16                                                   
1003753d  macSetSched                                                     
0000e2e5  macSetupFsCmd                                                   
00009de5  macSetupRATChanCompare                                          
0000b335  macSetupReceiveCmd                                              
20002128  macSfdDetectCback                                               
20002a0f  macSleepState                                                   
20002758  macSpecUsecsPerSymbol                                           
20002190  macSrcExtAddrList                                               
20002114  macSrcMatchIsAckAllPending                                      
200029f2  macSrcMatchIsEnabled                                            
20002115  macSrcResIndex                                                  
20002174  macSrcShortAddrList                                             
10034895  macStartBeaconPrepareCallback                                   
10035ad5  macStartBegin                                                   
10035311  macStartBroadcastPendTimer                                      
100363d9  macStartComplete                                                
10036309  macStartContinue                                                
10037d35  macStartFrameResponseTimer                                      
10037e15  macStartResponseTimer                                           
100359d5  macStartSetParams                                               
0000186c  macStartingSt                                                   
100388b1  macStateIdle                                                    
1003887d  macStateIdleOrPolling                                           
100388c9  macStateScanning                                                
200028c4  macStateTbl                                                     
0000cbd5  macStopCmd                                                      
00015bad  macSymbolBCTimerPowerUp                                         
0001449d  macSymbolTimerBCWakeUp                                          
00014031  macSymbolTimerCount                                             
000144cd  macSymbolTimerICallTimerCback                                   
20003f74  macSymbolTimerImpending                                         
0000eeed  macSymbolTimerInit                                              
00014eb1  macSymbolTimerPowerDown                                         
00015bc5  macSymbolTimerRestore                                           
20002760  macSymbolTimerRollover                                          
00010f75  macSymbolTimerRolloverCallback                                  
00014949  macSymbolTimerSetRollover                                       
000134b1  macSymbolTimerSetTrigger                                        
00015bdd  macSymbolTimerSetTriggerRollover                                
20002764  macSymbolTimerTrigger                                           
0000bf41  macSymbolTimerTriggerCallback                                   
10034e8d  macSyncTimeoutCallback                                          
20000194  macTask                                                         
20003f75  macTaskId                                                       
0000cf35  macTaskInit                                                     
200029ec  macTasksEvents                                                  
00014ed5  macTimer                                                        
20003f60  macTimerActive                                                  
00010fd9  macTimerAddTimer                                                
00013c2d  macTimerAligned                                                 
00011409  macTimerCancel                                                  
000144fd  macTimerCheckUnAlignedQ                                         
00011469  macTimerGetNextTimer                                            
00014031  macTimerGetTime                                                 
00013c65  macTimerInit                                                    
200026c4  macTimerNewRollover                                             
0000da11  macTimerRealign                                                 
00013981  macTimerRecalcUnaligned                                         
00015851  macTimerRemoveTimer                                             
200026c0  macTimerRollover                                                
00001b84  macTimerRolloverValue                                           
0000fc75  macTimerSetRollover                                             
000123b5  macTimerStart                                                   
00015bf5  macTimerSyncRollover                                            
00012c1d  macTimerUpdActive                                               
0000f399  macTimerUpdateSymbolTimer                                       
00010705  macTrackPeriodCallback                                          
0000e64d  macTrackStartCallback                                           
0000d285  macTrackTimeoutCallback                                         
00014c39  macTxAbortIsr                                                   
00015835  macTxAckIsr                                                     
00013c9d  macTxAckNotReceivedCallback                                     
00012035  macTxAckReceivedCallback                                        
20003f76  macTxActive                                                     
0001653f  macTxBackoffHandler                                             
00015c0d  macTxBackoffTimerExpiry                                         
200027aa  macTxBe                                                         
10034421  macTxBeaconCompleteCallback                                     
0000b501  macTxChannelBusyCallback                                        
2000291b  macTxCmdActive                                                  
100364f9  macTxCompleteCallback                                           
200027b2  macTxCsmaBackoffDelay                                           
10039e3d  macTxCsmaDelay                                                  
000139bd  macTxDecrypt                                                    
00010771  macTxDoneCallback                                               
000044a1  macTxFrame                                                      
00001fba  macTxFrameFailed                                                
00013cd5  macTxFrameIsr                                                   
00015325  macTxFrameRetransmit                                            
00001fc8  macTxFrameSuccess                                               
200027ab  macTxGpInterframeDelay                                          
00014975  macTxRequestCsmaRtcDelay                                        
200029f0  macTxSlottedDelay                                               
200027a8  macTxSlottedDelayFactor                                         
2000212c  macTxTimestamp                                                  
00012fe9  macTxTimestampCallback                                          
200027a9  macTxType                                                       
000134f1  macTxUpdateIE                                                   
20003f77  macUnitBackoffPeriod                                            
10039ea5  macUpdateCsmPhyParam                                            
10038349  macUpdateHeaderIEPtr                                            
1003b9f1  macUpdatePanId                                                  
10038489  macUpdatePayloadIEPtr                                           
200009e8  macUser0Cfg                                                     
10039da1  macWSAsyncCnf                                                   
00015c25  macWrapper8ByteUnused                                           
000570f5  macWrapperAddDevice                                             
00005f51  macWrapperAddKeyInitFCtr                                        
00007c49  macWrapperDeleteAllDevices                                      
00006d35  macWrapperDeleteDevice                                          
000069f9  macWrapperDeleteKeyAndAssociatedDevices                         
1003c6e9  macWrapperGetDefaultSourceKey                                   
100387f9  mac_msg_deallocate                                              
0001103d  main                                                            
200029f8  main_func_sp                                                    
00014763  malloc                                                          
00014ef9  memcmp                                                          
0000daad  memcpy                                                          
0000fb11  memset                                                          
20001204  menuBuff                                                        
00001f08  msacbackSizeTable                                               
20001924  numJoinDevStatusLine                                            
20002924  numRfCmd                                                        
20002925  numRxCmd                                                        
20002926  numRxPostCmd                                                    
200027b1  numTx                                                           
20003f64  nvsCC26XXObjects                                                
00016545  osalHeapAllocFxn                                                
0001654b  osalHeapFreeFxn                                                 
00012799  osalHeapGetStatsFxn                                             
0000fa8d  osalHeapInitFxn                                                 
000165f7  osalHeapIsBlockingFxn                                           
0000202c  outPinStrengths                                                 
00001f9c  outPinTypes                                                     
20002930  pClockHandleEDScan                                              
20000138  pMacCbackCheckPending                                           
20000134  pMacCbackQueryRetransmit                                        
20002698  pMacDataTx                                                      
200028b8  pMacEnhancedAck                                                 
20002130  pMacRadioConfig                                                 
20002508  pMaxPower                                                       
20002780  pOverrides_2gfsk50kbps154g                                      
20002500  pRfMode                                                         
20002504  pRfPowerTable                                                   
200018e6  permitJoining                                                   
200037dc  pinHandleTable                                                  
20002960  pinLowerBound                                                   
2000295c  pinUpperBound                                                   
000150c3  radioComputeED                                                  
20002118  reqAccessAlloc                                                  
00001a10  resourceDB                                                      
00002535  rfSelect                                                        
0001486d  rf_patch_cpe_prop                                               
2000211a  rxCmdHandle                                                     
20003f78  rxFhRsl                                                         
20003cd5  rxPromiscuousMode                                               
20003ce4  rxRadioBufferPtr                                                
20003cd8  rxSeqNum                                                        
000149a1  sAddrCmp                                                        
00015fb1  sAddrCpy                                                        
00015889  sAddrExtCmp                                                     
00015fc5  sAddrExtCpy                                                     
200018e5  savedCllcState                                                  
0000f71d  scheduleNopWakeupCmd                                            
1002fddb  strlen                                                          
00014d23  strncat                                                         
000140cd  strncpy                                                         
00009839  strtol                                                          
20001c48  taskCnt                                                         
20001c6c  taskTbl                                                         
20001f84  ti_sysbios_BIOS_Module__state__V                                
1002e4e1  ti_sysbios_BIOS_RtsGateProxy_Handle__label__S                   
1002eb79  ti_sysbios_BIOS_RtsGateProxy_Params__init__S                    
1002ec77  ti_sysbios_BIOS_RtsGateProxy_enter__E                           
1002ec7b  ti_sysbios_BIOS_RtsGateProxy_leave__E                           
1002ec9b  ti_sysbios_BIOS_RtsGateProxy_query__E                           
1002ec9b  ti_sysbios_BIOS_RtsGateProxy_query__E                           
0001452d  ti_sysbios_BIOS_atExitFunc__I                                   
00015dcd  ti_sysbios_BIOS_exitFunc__I                                     
1002ea85  ti_sysbios_BIOS_exit__E                                         
1002e9fd  ti_sysbios_BIOS_getCpuFreq__E                                   
1002ea95  ti_sysbios_BIOS_getThreadType__E                                
1002d01b  ti_sysbios_BIOS_linkedWithIncorrectBootLibrary__E               
0000fb83  ti_sysbios_BIOS_nullFunc__I                                     
00014f65  ti_sysbios_BIOS_registerRTSLock__I                              
00014f89  ti_sysbios_BIOS_removeRTSLock__I                                
00015465  ti_sysbios_BIOS_rtsLock__I                                      
00015cb5  ti_sysbios_BIOS_rtsUnlock__I                                    
1002ea11  ti_sysbios_BIOS_setThreadType__E                                
0001455d  ti_sysbios_BIOS_startFunc__I                                    
1002eaa5  ti_sysbios_BIOS_start__E                                        
0000d08d  ti_sysbios_family_arm_cc26xx_Boot_trimDevice                    
0000068e  ti_sysbios_family_arm_cc26xx_Timer_Module__id__C                
1002e15d  ti_sysbios_family_arm_cc26xx_Timer_Module__startupDone__S       
20002048  ti_sysbios_family_arm_cc26xx_Timer_Module__state__V             
1002dfa5  ti_sysbios_family_arm_cc26xx_Timer_Module_startup__E            
200024b0  ti_sysbios_family_arm_cc26xx_Timer_Object__table__V             
00015485  ti_sysbios_family_arm_cc26xx_Timer_dynamicStub__E               
000006c4  ti_sysbios_family_arm_cc26xx_Timer_funcHookCH1__C               
00000724  ti_sysbios_family_arm_cc26xx_Timer_funcHookCH2__C               
00015fed  ti_sysbios_family_arm_cc26xx_Timer_getCount64__E                
00013d7d  ti_sysbios_family_arm_cc26xx_Timer_getCurrentTick__E            
1002ec7f  ti_sysbios_family_arm_cc26xx_Timer_getExpiredTicks__E           
00014fad  ti_sysbios_family_arm_cc26xx_Timer_getMaxTicks__E               
1002ec83  ti_sysbios_family_arm_cc26xx_Timer_getPeriod__E                 
0001458d  ti_sysbios_family_arm_cc26xx_Timer_initDevice__I                
1002c709  ti_sysbios_family_arm_cc26xx_Timer_periodicStub__E              
1002dfd1  ti_sysbios_family_arm_cc26xx_Timer_postInit__I                  
00013e59  ti_sysbios_family_arm_cc26xx_Timer_setNextTick__E               
1002ec87  ti_sysbios_family_arm_cc26xx_Timer_setPeriod__E                 
000135b1  ti_sysbios_family_arm_cc26xx_Timer_setThreshold__I              
0000f79d  ti_sysbios_family_arm_cc26xx_Timer_start__E                     
000006fc  ti_sysbios_family_arm_cc26xx_Timer_startupNeeded__C             
1002dcf1  ti_sysbios_family_arm_cc26xx_Timer_startup__E                   
20001f70  ti_sysbios_family_arm_cc26xx_TimestampProvider_Module__state__V 
1002e42d  ti_sysbios_family_arm_cc26xx_TimestampProvider_Module_startup__E
00016281  ti_sysbios_family_arm_cc26xx_TimestampProvider_get32__E         
1002dffd  ti_sysbios_family_arm_cc26xx_TimestampProvider_get64__E         
1002eb3d  ti_sysbios_family_arm_cc26xx_TimestampProvider_getFreq__E       
0000089c  ti_sysbios_family_arm_cc26xx_TimestampProvider_useClockTimer__C 
00000728  ti_sysbios_family_arm_m3_Hwi_E_NMI__C                           
0000082c  ti_sysbios_family_arm_m3_Hwi_E_alreadyDefined__C                
0000078c  ti_sysbios_family_arm_m3_Hwi_E_busFault__C                      
000008b4  ti_sysbios_family_arm_m3_Hwi_E_debugMon__C                      
000008a8  ti_sysbios_family_arm_m3_Hwi_E_hardFault__C                     
000008d0  ti_sysbios_family_arm_m3_Hwi_E_hwiLimitExceeded__C              
00000924  ti_sysbios_family_arm_m3_Hwi_E_memFault__C                      
00000700  ti_sysbios_family_arm_m3_Hwi_E_noIsr__C                         
000006cc  ti_sysbios_family_arm_m3_Hwi_E_reserved__C                      
000008b8  ti_sysbios_family_arm_m3_Hwi_E_svCall__C                        
00000914  ti_sysbios_family_arm_m3_Hwi_E_usageFault__C                    
1002e451  ti_sysbios_family_arm_m3_Hwi_Handle__label__S                   
1002ce71  ti_sysbios_family_arm_m3_Hwi_Instance_finalize__E               
1002c79d  ti_sysbios_family_arm_m3_Hwi_Instance_init__E                   
20002a0c  ti_sysbios_family_arm_m3_Hwi_Module_State_0_excActive__A        
200029fc  ti_sysbios_family_arm_m3_Hwi_Module_State_0_excContext__A       
20002a00  ti_sysbios_family_arm_m3_Hwi_Module_State_0_excStack__A         
0000068c  ti_sysbios_family_arm_m3_Hwi_Module__id__C                      
2000296c  ti_sysbios_family_arm_m3_Hwi_Module__root__V                    
1002e185  ti_sysbios_family_arm_m3_Hwi_Module__startupDone__S             
20002014  ti_sysbios_family_arm_m3_Hwi_Module__state__V                   
1002d3c9  ti_sysbios_family_arm_m3_Hwi_Module_startup__E                  
000006e4  ti_sysbios_family_arm_m3_Hwi_NUM_INTERRUPTS__C                  
000008e0  ti_sysbios_family_arm_m3_Hwi_Object__DESC__C                    
1002fc10  ti_sysbios_family_arm_m3_Hwi_Object__PARAMS__C                  
00000904  ti_sysbios_family_arm_m3_Hwi_Object__count__C                   
1002e1ad  ti_sysbios_family_arm_m3_Hwi_Object__delete__S                  
1002e1d5  ti_sysbios_family_arm_m3_Hwi_Object__get__S                     
00000694  ti_sysbios_family_arm_m3_Hwi_Object__table__C                   
20002898  ti_sysbios_family_arm_m3_Hwi_Object__table__V                   
1002eb49  ti_sysbios_family_arm_m3_Hwi_Params__init__S                    
00000918  ti_sysbios_family_arm_m3_Hwi_ccr__C                             
1002d421  ti_sysbios_family_arm_m3_Hwi_construct                          
000139f9  ti_sysbios_family_arm_m3_Hwi_construct2__E                      
1002d1a1  ti_sysbios_family_arm_m3_Hwi_create                             
1002ec8b  ti_sysbios_family_arm_m3_Hwi_delete                             
1002e475  ti_sysbios_family_arm_m3_Hwi_destruct                           
1002eb55  ti_sysbios_family_arm_m3_Hwi_disableFxn__E                      
1002d8d9  ti_sysbios_family_arm_m3_Hwi_disableInterrupt__E                
1002cedd  ti_sysbios_family_arm_m3_Hwi_dispatchC__I                       
200034b0  ti_sysbios_family_arm_m3_Hwi_dispatchTable                      
1002f931  ti_sysbios_family_arm_m3_Hwi_dispatch__I                        
1002ec29  ti_sysbios_family_arm_m3_Hwi_doSwiRestore__I                    
1002ec41  ti_sysbios_family_arm_m3_Hwi_doTaskRestore__I                   
1002eb61  ti_sysbios_family_arm_m3_Hwi_enableFxn__E                       
1002d91d  ti_sysbios_family_arm_m3_Hwi_enableInterrupt__E                 
1002b82d  ti_sysbios_family_arm_m3_Hwi_excBusFault__I                     
1002c31d  ti_sysbios_family_arm_m3_Hwi_excDebugMon__I                     
1002b405  ti_sysbios_family_arm_m3_Hwi_excDumpRegs__I                     
1002bda9  ti_sysbios_family_arm_m3_Hwi_excFillContext__I                  
1002fb39  ti_sysbios_family_arm_m3_Hwi_excHandlerAsm__I                   
00000760  ti_sysbios_family_arm_m3_Hwi_excHandlerFunc__C                  
1002beb5  ti_sysbios_family_arm_m3_Hwi_excHandlerMax__I                   
1002ddf5  ti_sysbios_family_arm_m3_Hwi_excHandler__I                      
1002c185  ti_sysbios_family_arm_m3_Hwi_excHardFault__I                    
000020a8  ti_sysbios_family_arm_m3_Hwi_excHookFuncs__A                    
000005d4  ti_sysbios_family_arm_m3_Hwi_excHookFuncs__C                    
1002bc61  ti_sysbios_family_arm_m3_Hwi_excMemFault__I                     
1002da71  ti_sysbios_family_arm_m3_Hwi_excNmi__I                          
1002d961  ti_sysbios_family_arm_m3_Hwi_excNoIsr__I                        
1002d62d  ti_sysbios_family_arm_m3_Hwi_excReserved__I                     
1002d9a5  ti_sysbios_family_arm_m3_Hwi_excSvCall__I                       
1002b9a1  ti_sysbios_family_arm_m3_Hwi_excUsageFault__I                   
1002daad  ti_sysbios_family_arm_m3_Hwi_getHandle__E                       
1002d9e9  ti_sysbios_family_arm_m3_Hwi_getStackInfo__E                    
1002c831  ti_sysbios_family_arm_m3_Hwi_initNVIC__E                        
1002fab9  ti_sysbios_family_arm_m3_Hwi_initStacks__E                      
1002fa11  ti_sysbios_family_arm_m3_Hwi_interruptsAreDisabledButShouldNotBe
000007c0  ti_sysbios_family_arm_m3_Hwi_nullIsrFunc__C                     
00000894  ti_sysbios_family_arm_m3_Hwi_numSparseInterrupts__C             
e000e000  ti_sysbios_family_arm_m3_Hwi_nvic                               
1002fb11  ti_sysbios_family_arm_m3_Hwi_pendSV__I                          
1002e8fd  ti_sysbios_family_arm_m3_Hwi_plug__E                            
1002c3d9  ti_sysbios_family_arm_m3_Hwi_postInit__I                        
00016165  ti_sysbios_family_arm_m3_Hwi_post__E                            
00000824  ti_sysbios_family_arm_m3_Hwi_priGroup__C                        
20000000  ti_sysbios_family_arm_m3_Hwi_ramVectors                         
00000000  ti_sysbios_family_arm_m3_Hwi_resetVectors                       
1002ec47  ti_sysbios_family_arm_m3_Hwi_restoreFxn__E                      
1002fb35  ti_sysbios_family_arm_m3_Hwi_return                             
00016551  ti_sysbios_family_arm_m3_Hwi_setFunc__E                         
1002e919  ti_sysbios_family_arm_m3_Hwi_setPriority__E                     
1002ec31  ti_sysbios_family_arm_m3_Hwi_startup__E                         
1002e935  ti_sysbios_family_arm_m3_Hwi_switchFromBootStack__E             
1002ec8f  ti_sysbios_family_arm_m3_TaskSupport_Module__startupDone__S     
1002fa2d  ti_sysbios_family_arm_m3_TaskSupport_buildTaskStack             
1002eab5  ti_sysbios_family_arm_m3_TaskSupport_getStackAlignment__E       
1002fb8f  ti_sysbios_family_arm_m3_TaskSupport_glue                       
000006e0  ti_sysbios_family_arm_m3_TaskSupport_stackAlignment__C          
1002dae9  ti_sysbios_family_arm_m3_TaskSupport_start__E                   
1002fb77  ti_sysbios_family_arm_m3_TaskSupport_swap__E                    
1002fb59  ti_sysbios_family_xxx_Hwi_switchAndRunFunc                      
1002e499  ti_sysbios_gates_GateHwi_Handle__label__S                       
1002d5d7  ti_sysbios_gates_GateHwi_Instance_init__E                       
000007e0  ti_sysbios_gates_GateHwi_Module__FXNS__C                        
00000750  ti_sysbios_gates_GateHwi_Module__id__C                          
20002974  ti_sysbios_gates_GateHwi_Module__root__V                        
0000086c  ti_sysbios_gates_GateHwi_Object__DESC__C                        
1002fd00  ti_sysbios_gates_GateHwi_Object__PARAMS__C                      
1002e029  ti_sysbios_gates_GateHwi_Object__create__S                      
1002e4bd  ti_sysbios_gates_GateHwi_Object__delete__S                      
1002eb6d  ti_sysbios_gates_GateHwi_enter__E                               
1002ec4d  ti_sysbios_gates_GateHwi_leave__E                               
1002ec93  ti_sysbios_gates_GateHwi_query__E                               
000149cd  ti_sysbios_gates_GateMutexPri_Handle__label__S                  
000020d4  ti_sysbios_gates_GateMutexPri_Instance_State_pendQ__O           
00016175  ti_sysbios_gates_GateMutexPri_Instance_finalize__E              
00015ccd  ti_sysbios_gates_GateMutexPri_Instance_init__E                  
00001d44  ti_sysbios_gates_GateMutexPri_Module__FXNS__C                   
2000297c  ti_sysbios_gates_GateMutexPri_Module__root__V                   
00001dc8  ti_sysbios_gates_GateMutexPri_Object__DESC__C                   
00001ea0  ti_sysbios_gates_GateMutexPri_Object__PARAMS__C                 
000145bd  ti_sysbios_gates_GateMutexPri_Object__create__S                 
00014fd1  ti_sysbios_gates_GateMutexPri_Object__delete__S                 
000163bd  ti_sysbios_gates_GateMutexPri_Params__init__S                   
000145ed  ti_sysbios_gates_GateMutexPri_create                            
0000e999  ti_sysbios_gates_GateMutexPri_enter__E                          
0001419b  ti_sysbios_gates_GateMutexPri_insertPri__I                      
0000ff31  ti_sysbios_gates_GateMutexPri_leave__E                          
000165fb  ti_sysbios_gates_GateMutexPri_query__E                          
1002e4e1  ti_sysbios_gates_GateMutex_Handle__label__S                     
000005fc  ti_sysbios_gates_GateMutex_Instance_State_sem__O                
1002ec53  ti_sysbios_gates_GateMutex_Instance_finalize__E                 
1002e9bb  ti_sysbios_gates_GateMutex_Instance_init__E                     
00000664  ti_sysbios_gates_GateMutex_Module__FXNS__C                      
000007c6  ti_sysbios_gates_GateMutex_Module__id__C                        
20002984  ti_sysbios_gates_GateMutex_Module__root__V                      
000005d8  ti_sysbios_gates_GateMutex_Object__DESC__C                      
1002fd18  ti_sysbios_gates_GateMutex_Object__PARAMS__C                    
1002de25  ti_sysbios_gates_GateMutex_Object__create__S                    
1002e1fd  ti_sysbios_gates_GateMutex_Object__delete__S                    
200025f8  ti_sysbios_gates_GateMutex_Object__table__V                     
1002eb79  ti_sysbios_gates_GateMutex_Params__init__S                      
1002e055  ti_sysbios_gates_GateMutex_construct                            
1002de55  ti_sysbios_gates_GateMutex_create                               
1002ec97  ti_sysbios_gates_GateMutex_delete                               
1002e505  ti_sysbios_gates_GateMutex_destruct                             
1002e225  ti_sysbios_gates_GateMutex_enter__E                             
1002eb05  ti_sysbios_gates_GateMutex_leave__E                             
1002ec9b  ti_sysbios_gates_GateMutex_query__E                             
1002e451  ti_sysbios_hal_Hwi_HwiProxy_Handle__label__S                    
1002e185  ti_sysbios_hal_Hwi_HwiProxy_Module__startupDone__S              
1002eb49  ti_sysbios_hal_Hwi_HwiProxy_Params__init__S                     
1002ec9f  ti_sysbios_hal_Hwi_HwiProxy_create                              
1002eca3  ti_sysbios_hal_Hwi_HwiProxy_delete                              
1002d8d9  ti_sysbios_hal_Hwi_HwiProxy_disableInterrupt__E                 
1002d8d9  ti_sysbios_hal_Hwi_HwiProxy_disableInterrupt__E                 
1002d91d  ti_sysbios_hal_Hwi_HwiProxy_enableInterrupt__E                  
1002d91d  ti_sysbios_hal_Hwi_HwiProxy_enableInterrupt__E                  
1002d9e9  ti_sysbios_hal_Hwi_HwiProxy_getStackInfo__E                     
1002d9e9  ti_sysbios_hal_Hwi_HwiProxy_getStackInfo__E                     
00016165  ti_sysbios_hal_Hwi_HwiProxy_post__E                             
1002ec31  ti_sysbios_hal_Hwi_HwiProxy_startup__E                          
1002ec31  ti_sysbios_hal_Hwi_HwiProxy_startup__E                          
1002e935  ti_sysbios_hal_Hwi_HwiProxy_switchFromBootStack__E              
1002e935  ti_sysbios_hal_Hwi_HwiProxy_switchFromBootStack__E              
1002ec15  ti_sysbios_hal_Hwi_Instance_finalize__E                         
1002e8dd  ti_sysbios_hal_Hwi_Instance_init__E                             
2000298c  ti_sysbios_hal_Hwi_Module__root__V                              
1002ea61  ti_sysbios_hal_Hwi_Module_startup__E                            
00000804  ti_sysbios_hal_Hwi_Object__DESC__C                              
1002fc40  ti_sysbios_hal_Hwi_Object__PARAMS__C                            
1002e24d  ti_sysbios_hal_Hwi_Object__delete__S                            
1002d1fd  ti_sysbios_hal_Hwi_create                                       
1002eca7  ti_sysbios_hal_Hwi_delete                                       
1002d8d9  ti_sysbios_hal_Hwi_disableInterrupt__E                          
1002d8d9  ti_sysbios_hal_Hwi_disableInterrupt__E                          
1002d91d  ti_sysbios_hal_Hwi_enableInterrupt__E                           
1002d91d  ti_sysbios_hal_Hwi_enableInterrupt__E                           
1002d9e9  ti_sysbios_hal_Hwi_getStackInfo__E                              
1002d9e9  ti_sysbios_hal_Hwi_getStackInfo__E                              
1002df75  ti_sysbios_hal_Hwi_initStack                                    
00016165  ti_sysbios_hal_Hwi_post__E                                      
1002ec31  ti_sysbios_hal_Hwi_startup__E                                   
1002ec31  ti_sysbios_hal_Hwi_startup__E                                   
1002e935  ti_sysbios_hal_Hwi_switchFromBootStack__E                       
1002e935  ti_sysbios_hal_Hwi_switchFromBootStack__E                       
000149f9  ti_sysbios_heaps_HeapCallback_Handle__label__S                  
00016185  ti_sysbios_heaps_HeapCallback_Instance_finalize__E              
00015ce5  ti_sysbios_heaps_HeapCallback_Instance_init__E                  
00001c84  ti_sysbios_heaps_HeapCallback_Module__FXNS__C                   
20002994  ti_sysbios_heaps_HeapCallback_Module__root__V                   
000135f1  ti_sysbios_heaps_HeapCallback_Module_startup__E                 
00001de8  ti_sysbios_heaps_HeapCallback_Object__DESC__C                   
00001e24  ti_sysbios_heaps_HeapCallback_Object__PARAMS__C                 
000020d8  ti_sysbios_heaps_HeapCallback_Object__count__C                  
0001461d  ti_sysbios_heaps_HeapCallback_Object__create__S                 
00014ff5  ti_sysbios_heaps_HeapCallback_Object__delete__S                 
00016001  ti_sysbios_heaps_HeapCallback_Object__get__S                    
20002940  ti_sysbios_heaps_HeapCallback_Object__table__V                  
000020dc  ti_sysbios_heaps_HeapCallback_allocInstFxn__C                   
00016195  ti_sysbios_heaps_HeapCallback_alloc__E                          
000020e0  ti_sysbios_heaps_HeapCallback_createInstFxn__C                  
000165ff  ti_sysbios_heaps_HeapCallback_defaultCreate                     
00010017  ti_sysbios_heaps_HeapCallback_defaultDelete                     
000020e4  ti_sysbios_heaps_HeapCallback_deleteInstFxn__C                  
000020e8  ti_sysbios_heaps_HeapCallback_freeInstFxn__C                    
000161a5  ti_sysbios_heaps_HeapCallback_free__E                           
000020ec  ti_sysbios_heaps_HeapCallback_getStatsInstFxn__C                
000161b5  ti_sysbios_heaps_HeapCallback_getStats__E                       
000020f0  ti_sysbios_heaps_HeapCallback_initInstFxn__C                    
000020f4  ti_sysbios_heaps_HeapCallback_isBlockingInstFxn__C              
000161c5  ti_sysbios_heaps_HeapCallback_isBlocking__E                     
00000920  ti_sysbios_heaps_HeapMem_E_memory__C                            
1002e529  ti_sysbios_heaps_HeapMem_Handle__label__S                       
1002d849  ti_sysbios_heaps_HeapMem_Instance_init__E                       
1002e4e1  ti_sysbios_heaps_HeapMem_Module_GateProxy_Handle__label__S      
1002eb79  ti_sysbios_heaps_HeapMem_Module_GateProxy_Params__init__S       
1002ecab  ti_sysbios_heaps_HeapMem_Module_GateProxy_enter__E              
1002ecaf  ti_sysbios_heaps_HeapMem_Module_GateProxy_leave__E              
1002ec9b  ti_sysbios_heaps_HeapMem_Module_GateProxy_query__E              
1002ec9b  ti_sysbios_heaps_HeapMem_Module_GateProxy_query__E              
00000764  ti_sysbios_heaps_HeapMem_Module__FXNS__C                        
000006f8  ti_sysbios_heaps_HeapMem_Module__gateObj__C                     
0000075c  ti_sysbios_heaps_HeapMem_Module__id__C                          
2000299c  ti_sysbios_heaps_HeapMem_Module__root__V                        
0000092c  ti_sysbios_heaps_HeapMem_Object__DESC__C                        
1002fc94  ti_sysbios_heaps_HeapMem_Object__PARAMS__C                      
00000890  ti_sysbios_heaps_HeapMem_Object__count__C                       
1002de85  ti_sysbios_heaps_HeapMem_Object__create__S                      
1002e54d  ti_sysbios_heaps_HeapMem_Object__delete__S                      
1002e275  ti_sysbios_heaps_HeapMem_Object__get__S                         
000006c0  ti_sysbios_heaps_HeapMem_Object__table__C                       
1002cb51  ti_sysbios_heaps_HeapMem_allocUnprotected__E                    
1002d259  ti_sysbios_heaps_HeapMem_alloc__E                               
1002d479  ti_sysbios_heaps_HeapMem_freeUnprotected__E                     
1002dbd9  ti_sysbios_heaps_HeapMem_free__E                                
1002d6cd  ti_sysbios_heaps_HeapMem_getStats__E                            
1002dd25  ti_sysbios_heaps_HeapMem_init__I                                
1002ec59  ti_sysbios_heaps_HeapMem_isBlocking__E                          
00000844  ti_sysbios_heaps_HeapMem_reqAlign__C                            
1002eb13  ti_sysbios_heaps_HeapMem_restore__E                             
000006bc  ti_sysbios_heaps_HeapTrack_A_bufOverflow__C                     
00000840  ti_sysbios_heaps_HeapTrack_A_doubleFree__C                      
000006d0  ti_sysbios_heaps_HeapTrack_A_notEmpty__C                        
1002e571  ti_sysbios_heaps_HeapTrack_Handle__label__S                     
1002fd9c  ti_sysbios_heaps_HeapTrack_Instance_State_trackQueue__O         
1002c5d9  ti_sysbios_heaps_HeapTrack_Instance_finalize__E                 
1002e595  ti_sysbios_heaps_HeapTrack_Instance_init__E                     
00000600  ti_sysbios_heaps_HeapTrack_Module__FXNS__C                      
1002fda0  ti_sysbios_heaps_HeapTrack_Module__diagsEnabled__C              
1002fda4  ti_sysbios_heaps_HeapTrack_Module__diagsIncluded__C             
1002fda8  ti_sysbios_heaps_HeapTrack_Module__diagsMask__C                 
0000091c  ti_sysbios_heaps_HeapTrack_Module__id__C                        
1002fd80  ti_sysbios_heaps_HeapTrack_Object__PARAMS__C                    
1002e081  ti_sysbios_heaps_HeapTrack_Object__create__S                    
1002e5b9  ti_sysbios_heaps_HeapTrack_Object__delete__S                    
1002eb85  ti_sysbios_heaps_HeapTrack_Params__init__S                      
1002c8c1  ti_sysbios_heaps_HeapTrack_alloc__E                             
1002e0ad  ti_sysbios_heaps_HeapTrack_create                               
1002bb01  ti_sysbios_heaps_HeapTrack_free__E                              
1002e5dd  ti_sysbios_heaps_HeapTrack_getStats__E                          
1002eb91  ti_sysbios_heaps_HeapTrack_isBlocking__E                        
1002e9d1  ti_sysbios_knl_Clock_Instance_finalize__E                       
1002dd59  ti_sysbios_knl_Clock_Instance_init__E                           
000008bc  ti_sysbios_knl_Clock_Module_State_clockQ__O                     
200029a4  ti_sysbios_knl_Clock_Module__root__V                            
20001f44  ti_sysbios_knl_Clock_Module__state__V                           
1002e601  ti_sysbios_knl_Clock_Module_startup__E                          
00000638  ti_sysbios_knl_Clock_Object__DESC__C                            
1002fcb8  ti_sysbios_knl_Clock_Object__PARAMS__C                          
1002e29d  ti_sysbios_knl_Clock_Object__delete__S                          
20002858  ti_sysbios_knl_Clock_Object__table__V                           
1002eb9d  ti_sysbios_knl_Clock_Params__init__S                            
1002e15d  ti_sysbios_knl_Clock_TimerProxy_Module__startupDone__S          
1002eac5  ti_sysbios_knl_Clock_TimerProxy_getCurrentTick__E               
1002ecb3  ti_sysbios_knl_Clock_TimerProxy_getExpiredTicks__E              
1002ead5  ti_sysbios_knl_Clock_TimerProxy_getMaxTicks__E                  
1002ecb7  ti_sysbios_knl_Clock_TimerProxy_getPeriod__E                    
1002eae5  ti_sysbios_knl_Clock_TimerProxy_setNextTick__E                  
1002dcf1  ti_sysbios_knl_Clock_TimerProxy_startup__E                      
1002dcf1  ti_sysbios_knl_Clock_TimerProxy_startup__E                      
1002e625  ti_sysbios_knl_Clock_addI__E                                    
1002dd8d  ti_sysbios_knl_Clock_construct                                  
1002db25  ti_sysbios_knl_Clock_create                                     
1002ecbb  ti_sysbios_knl_Clock_delete                                     
1002e649  ti_sysbios_knl_Clock_destruct                                   
00016015  ti_sysbios_knl_Clock_doTick__I                                  
00014a25  ti_sysbios_knl_Clock_getTicksUntilInterrupt__E                  
1002dc11  ti_sysbios_knl_Clock_getTicks__E                                
0001464d  ti_sysbios_knl_Clock_getTimeout__E                              
1002eba9  ti_sysbios_knl_Clock_getTimerHandle__E                          
00016603  ti_sysbios_knl_Clock_isActive__E                                
1002dbd7  ti_sysbios_knl_Clock_logTick__E                                 
1002ecbf  ti_sysbios_knl_Clock_removeI__E                                 
1002e81d  ti_sysbios_knl_Clock_scheduleNextTick__E                        
1002ecc3  ti_sysbios_knl_Clock_setTimeout__E                              
1002c94d  ti_sysbios_knl_Clock_startI__E                                  
1002e9e7  ti_sysbios_knl_Clock_start__E                                   
1002e2c5  ti_sysbios_knl_Clock_stop__E                                    
000007c4  ti_sysbios_knl_Clock_tickMode__C                                
000020f8  ti_sysbios_knl_Clock_tickPeriod__C                              
000006e8  ti_sysbios_knl_Clock_triggerClock__C                            
1002dfa3  ti_sysbios_knl_Clock_triggerFunc__I                             
1002cbc5  ti_sysbios_knl_Clock_walkQueueDynamic__E                        
1002c53d  ti_sysbios_knl_Clock_workFuncDynamic__E                         
1002cad9  ti_sysbios_knl_Clock_workFunc__E                                
000008a0  ti_sysbios_knl_Event_Instance_State_pendQ__O                    
1002ec1f  ti_sysbios_knl_Event_Instance_init__E                           
200029ac  ti_sysbios_knl_Event_Module__root__V                            
000005b4  ti_sysbios_knl_Event_Object__DESC__C                            
1002fd30  ti_sysbios_knl_Event_Object__PARAMS__C                          
1002e66d  ti_sysbios_knl_Event_Object__delete__S                          
1002ebb5  ti_sysbios_knl_Event_Params__init__S                            
1002e83d  ti_sysbios_knl_Event_checkEvents__I                             
1002e0d9  ti_sysbios_knl_Event_construct                                  
1002deb5  ti_sysbios_knl_Event_create                                     
1002ecc7  ti_sysbios_knl_Event_delete                                     
1002e85d  ti_sysbios_knl_Event_destruct                                   
1002e105  ti_sysbios_knl_Event_pendTimeout__I                             
1002c0a5  ti_sysbios_knl_Event_pend__E                                    
1002cfb3  ti_sysbios_knl_Event_post__E                                    
1002ea73  ti_sysbios_knl_Event_sync__E                                    
000020fc  ti_sysbios_knl_Idle_funcList__A                                 
0000062c  ti_sysbios_knl_Idle_funcList__C                                 
1002ec39  ti_sysbios_knl_Idle_loop__E                                     
1002e2ed  ti_sysbios_knl_Idle_run__E                                      
0000065c  ti_sysbios_knl_Mailbox_Instance_State_dataQue__O                
000007dc  ti_sysbios_knl_Mailbox_Instance_State_dataSem__O                
00000954  ti_sysbios_knl_Mailbox_Instance_State_freeQue__O                
00000830  ti_sysbios_knl_Mailbox_Instance_State_freeSem__O                
1002d2b5  ti_sysbios_knl_Mailbox_Instance_finalize__E                     
1002c48d  ti_sysbios_knl_Mailbox_Instance_init__E                         
200029b4  ti_sysbios_knl_Mailbox_Module__root__V                          
1002da2d  ti_sysbios_knl_Mailbox_Module_startup__E                        
000007a0  ti_sysbios_knl_Mailbox_Object__DESC__C                          
1002fbdc  ti_sysbios_knl_Mailbox_Object__PARAMS__C                        
000008ac  ti_sysbios_knl_Mailbox_Object__count__C                         
1002e315  ti_sysbios_knl_Mailbox_Object__delete__S                        
1002e33d  ti_sysbios_knl_Mailbox_Object__get__S                           
00000690  ti_sysbios_knl_Mailbox_Object__table__C                         
1002ebc1  ti_sysbios_knl_Mailbox_Params__init__S                          
1002d4d1  ti_sysbios_knl_Mailbox_construct                                
1002d311  ti_sysbios_knl_Mailbox_create                                   
1002eccb  ti_sysbios_knl_Mailbox_delete                                   
1002e691  ti_sysbios_knl_Mailbox_destruct                                 
00000898  ti_sysbios_knl_Mailbox_maxTypeAlign__C                          
1002d581  ti_sysbios_knl_Mailbox_pend__E                                  
1002e405  ti_sysbios_knl_Mailbox_postInit__I                              
1002cf49  ti_sysbios_knl_Mailbox_post__E                                  
1002ec5f  ti_sysbios_knl_Queue_Instance_init__E                           
200029bc  ti_sysbios_knl_Queue_Module__root__V                            
00000704  ti_sysbios_knl_Queue_Object__DESC__C                            
1002fd48  ti_sysbios_knl_Queue_Object__PARAMS__C                          
00000794  ti_sysbios_knl_Queue_Object__count__C                           
1002e6b5  ti_sysbios_knl_Queue_Object__delete__S                          
1002e87d  ti_sysbios_knl_Queue_Object__get__S                             
00000834  ti_sysbios_knl_Queue_Object__table__C                           
1002dee5  ti_sysbios_knl_Queue_construct                                  
1002df15  ti_sysbios_knl_Queue_create                                     
1002eccf  ti_sysbios_knl_Queue_delete                                     
1002ebcd  ti_sysbios_knl_Queue_dequeue__E                                 
1002e89d  ti_sysbios_knl_Queue_destruct                                   
1002ec65  ti_sysbios_knl_Queue_elemClear__E                               
1002eb21  ti_sysbios_knl_Queue_empty__E                                   
1002ebd9  ti_sysbios_knl_Queue_enqueue__E                                 
1002e951  ti_sysbios_knl_Queue_get__E                                     
1002ecd3  ti_sysbios_knl_Queue_head__E                                    
000163c9  ti_sysbios_knl_Queue_insert__E                                  
1002ecd7  ti_sysbios_knl_Queue_next__E                                    
1002e96d  ti_sysbios_knl_Queue_put__E                                     
1002eb2f  ti_sysbios_knl_Queue_remove__E                                  
000008d8  ti_sysbios_knl_Semaphore_Instance_State_pendQ__O                
1002e6d9  ti_sysbios_knl_Semaphore_Instance_finalize__E                   
1002d01d  ti_sysbios_knl_Semaphore_Instance_init__E                       
200029c4  ti_sysbios_knl_Semaphore_Module__root__V                        
0000084c  ti_sysbios_knl_Semaphore_Object__DESC__C                        
1002fcdc  ti_sysbios_knl_Semaphore_Object__PARAMS__C                      
1002e365  ti_sysbios_knl_Semaphore_Object__delete__S                      
1002ebe5  ti_sysbios_knl_Semaphore_Params__init__S                        
1002ddc1  ti_sysbios_knl_Semaphore_construct                              
1002dc49  ti_sysbios_knl_Semaphore_create                                 
1002ecdb  ti_sysbios_knl_Semaphore_delete                                 
1002e6fd  ti_sysbios_knl_Semaphore_destruct                               
00000838  ti_sysbios_knl_Semaphore_eventPost__C                           
00000660  ti_sysbios_knl_Semaphore_eventSync__C                           
1002e131  ti_sysbios_knl_Semaphore_pendTimeout__I                         
1002bfb1  ti_sysbios_knl_Semaphore_pend__E                                
1002cd21  ti_sysbios_knl_Semaphore_post__E                                
1002e721  ti_sysbios_knl_Swi_Handle__label__S                             
1002e42b  ti_sysbios_knl_Swi_Instance_finalize__E                         
1002d36d  ti_sysbios_knl_Swi_Instance_init__E                             
200026c8  ti_sysbios_knl_Swi_Module_State_0_readyQ__A                     
000006f2  ti_sysbios_knl_Swi_Module__id__C                                
200029cc  ti_sysbios_knl_Swi_Module__root__V                              
20001fa8  ti_sysbios_knl_Swi_Module__state__V                             
1002e745  ti_sysbios_knl_Swi_Module_startup__E                            
00000698  ti_sysbios_knl_Swi_Object__DESC__C                              
1002fc6c  ti_sysbios_knl_Swi_Object__PARAMS__C                            
00000628  ti_sysbios_knl_Swi_Object__count__C                             
1002e769  ti_sysbios_knl_Swi_Object__delete__S                            
1002e38d  ti_sysbios_knl_Swi_Object__get__S                               
000006ec  ti_sysbios_knl_Swi_Object__table__C                             
200026f8  ti_sysbios_knl_Swi_Object__table__V                             
1002ebf1  ti_sysbios_knl_Swi_Params__init__S                              
1002d719  ti_sysbios_knl_Swi_construct                                    
000158f9  ti_sysbios_knl_Swi_construct2__E                                
1002d765  ti_sysbios_knl_Swi_create                                       
1002ecdf  ti_sysbios_knl_Swi_delete                                       
1002e8bd  ti_sysbios_knl_Swi_destruct                                     
1002ea25  ti_sysbios_knl_Swi_disable__E                                   
1002ea39  ti_sysbios_knl_Swi_enabled__E                                   
000163d5  ti_sysbios_knl_Swi_getTrigger__E                                
000007c8  ti_sysbios_knl_Swi_numPriorities__C                             
00015cfd  ti_sysbios_knl_Swi_or__E                                        
1002ece3  ti_sysbios_knl_Swi_postInit__I                                  
1002d891  ti_sysbios_knl_Swi_post__E                                      
1002c9d5  ti_sysbios_knl_Swi_restoreHwi__E                                
1002db61  ti_sysbios_knl_Swi_restore__E                                   
1002d081  ti_sysbios_knl_Swi_runLoop__I                                   
1002cd91  ti_sysbios_knl_Swi_run__I                                       
1002d0e1  ti_sysbios_knl_Swi_schedule__I                                  
1002ebfd  ti_sysbios_knl_Swi_self__E                                      
00014101  ti_sysbios_knl_Swi_setPri__E                                    
1002ec6b  ti_sysbios_knl_Swi_startup__E                                   
1002e78d  ti_sysbios_knl_Task_Handle__label__S                            
20002f08  ti_sysbios_knl_Task_Instance_State_0_stack__A                   
1002c671  ti_sysbios_knl_Task_Instance_finalize__E                        
1002c251  ti_sysbios_knl_Task_Instance_init__E                            
20002a04  ti_sysbios_knl_Task_Module_State_0_idleTask__A                  
20002728  ti_sysbios_knl_Task_Module_State_0_readyQ__A                    
00000688  ti_sysbios_knl_Task_Module_State_inactiveQ__O                   
00000658  ti_sysbios_knl_Task_Module__id__C                               
200029d4  ti_sysbios_knl_Task_Module__root__V                             
20001fc4  ti_sysbios_knl_Task_Module__state__V                            
1002d141  ti_sysbios_knl_Task_Module_startup__E                           
0000072c  ti_sysbios_knl_Task_Object__DESC__C                             
1002fba0  ti_sysbios_knl_Task_Object__PARAMS__C                           
00000928  ti_sysbios_knl_Task_Object__count__C                            
1002e3b5  ti_sysbios_knl_Task_Object__delete__S                           
1002e7b1  ti_sysbios_knl_Task_Object__get__S                              
0000079c  ti_sysbios_knl_Task_Object__table__C                            
20002464  ti_sysbios_knl_Task_Object__table__V                            
1002ec09  ti_sysbios_knl_Task_Params__init__S                             
1002ec8f  ti_sysbios_knl_Task_SupportProxy_Module__startupDone__S         
1002eab5  ti_sysbios_knl_Task_SupportProxy_getStackAlignment__E           
1002eab5  ti_sysbios_knl_Task_SupportProxy_getStackAlignment__E           
1002dae9  ti_sysbios_knl_Task_SupportProxy_start__E                       
1002dae9  ti_sysbios_knl_Task_SupportProxy_start__E                       
1002fb77  ti_sysbios_knl_Task_SupportProxy_swap__E                        
1002fb77  ti_sysbios_knl_Task_SupportProxy_swap__E                        
000008a4  ti_sysbios_knl_Task_allBlockedFunc__C                           
1002d67d  ti_sysbios_knl_Task_allBlockedFunction__I                       
1002d7b1  ti_sysbios_knl_Task_blockI__E                                   
00015de3  ti_sysbios_knl_Task_block__E                                    
1002d5d9  ti_sysbios_knl_Task_construct                                   
1002d529  ti_sysbios_knl_Task_create                                      
00000910  ti_sysbios_knl_Task_defaultStackHeap__C                         
000008c8  ti_sysbios_knl_Task_defaultStackSize__C                         
1002ece7  ti_sysbios_knl_Task_delete                                      
1002e7d5  ti_sysbios_knl_Task_destruct                                    
1002ea4d  ti_sysbios_knl_Task_disable__E                                  
1002ec71  ti_sysbios_knl_Task_enable__E                                   
1002e7f9  ti_sysbios_knl_Task_enter__I                                    
1002db9d  ti_sysbios_knl_Task_exit__E                                     
00016607  ti_sysbios_knl_Task_getPri__E                                   
000007d4  ti_sysbios_knl_Task_initStackFlag__C                            
000007cc  ti_sysbios_knl_Task_numConstructedTasks__C                      
1002ca59  ti_sysbios_knl_Task_postInit__I                                 
1002dc81  ti_sysbios_knl_Task_processVitalTaskFlag__I                     
1002e3dd  ti_sysbios_knl_Task_restoreHwi__E                               
1002df45  ti_sysbios_knl_Task_restore__E                                  
1002cc39  ti_sysbios_knl_Task_schedule__I                                 
1002eaf5  ti_sysbios_knl_Task_self__E                                     
0000d79d  ti_sysbios_knl_Task_setPri__E                                   
1002e989  ti_sysbios_knl_Task_sleepTimeout__I                             
1002ce01  ti_sysbios_knl_Task_sleep__E                                    
1002ccad  ti_sysbios_knl_Task_startCore__E                                
1002eceb  ti_sysbios_knl_Task_startup__E                                  
1002fb83  ti_sysbios_knl_Task_swapReturn                                  
1002dcb9  ti_sysbios_knl_Task_unblockI__E                                 
1002e9a3  ti_sysbios_knl_Task_unblock__E                                  
1002d7fd  ti_sysbios_knl_Task_yield__E                                    
1002b400  ti_sysbios_rom_cortexm_cc26xx_cc26x2v2_CC26xx_REVISION__C       
20003f68  timerAlignedQ                                                   
20003f6c  timerUnalignedQ                                                 
200027ac  txAckReq                                                        
200028b0  txCmdHandle                                                     
0000db49  txComplete                                                      
00007dad  txCsmaDelay                                                     
200022e8  txPowerTable_868_pa13                                           
200027af  txSeqn                                                          
20003108  uartCC26XXObjects                                               
20000100  xdcRomConstPtr                                                  
20000104  xdcRomExternFuncPtr                                             
20000108  xdcRomStatePtr                                                  
00000001  xdc_rov_runtime_Mon__checksum                                   
00000001  xdc_rov_runtime_Mon__write                                      
0000074c  xdc_runtime_Assert_E_assertFailed__C                            
1002f421  xdc_runtime_Assert_raise__I                                     
1002f659  xdc_runtime_Core_assignLabel__I                                 
1002f4c9  xdc_runtime_Core_assignParams__I                                
1002f511  xdc_runtime_Core_constructObject__I                             
1002f2f9  xdc_runtime_Core_createObject__I                                
1002f367  xdc_runtime_Core_deleteObject__I                                
1002f803  xdc_runtime_Core_destructObject__I                              
00000828  xdc_runtime_Error_E_memory__C                                   
20002878  xdc_runtime_Error_IgnoreBlock                                   
1002f779  xdc_runtime_Error_check__E                                      
00015d45  xdc_runtime_Error_init__E                                       
000006c8  xdc_runtime_Error_policyFxn__C                                  
1002f1f7  xdc_runtime_Error_policySpin__E                                 
000005a4  xdc_runtime_Error_policy__C                                     
1002f739  xdc_runtime_Error_raiseX__E                                     
1002f91b  xdc_runtime_Gate_enterSystem__E                                 
1002f90f  xdc_runtime_Gate_leaveSystem__E                                 
000008cc  xdc_runtime_IGateProvider_Interface__BASE__C                    
00000754  xdc_runtime_IHeap_Interface__BASE__C                            
000005a8  xdc_runtime_IModule_Interface__BASE__C                          
1002e499  xdc_runtime_Main_Module_GateProxy_Handle__label__S              
1002ec93  xdc_runtime_Main_Module_GateProxy_query__E                      
1002e529  xdc_runtime_Memory_HeapProxy_Handle__label__S                   
1002f8f1  xdc_runtime_Memory_HeapProxy_alloc__E                           
1002f8fb  xdc_runtime_Memory_HeapProxy_free__E                            
1002f905  xdc_runtime_Memory_HeapProxy_getStats__E                        
000006f0  xdc_runtime_Memory_Module__id__C                                
20002008  xdc_runtime_Memory_Module__state__V                             
1002f289  xdc_runtime_Memory_alloc__E                                     
1002f8d9  xdc_runtime_Memory_calloc__E                                    
00000950  xdc_runtime_Memory_defaultHeapInstance__C                       
1002f81d  xdc_runtime_Memory_free__E                                      
1002f8a9  xdc_runtime_Memory_getMaxDefaultTypeAlign__E                    
1002f831  xdc_runtime_Memory_getStats__E                                  
1002f795  xdc_runtime_Memory_valloc__E                                    
20001f7c  xdc_runtime_Registry_Module__state__V                           
1002f759  xdc_runtime_Registry_findById__E                                
20001f74  xdc_runtime_Startup_Module__state__V                            
00000001  xdc_runtime_Startup__EXECFXN__C                                 
00000001  xdc_runtime_Startup__RESETFXN__C                                
000005f8  xdc_runtime_Startup_execImpl__C                                 
1002f475  xdc_runtime_Startup_exec__E                                     
00015d5d  xdc_runtime_Startup_exec__I                                     
00002038  xdc_runtime_Startup_firstFxns__A                                
000006d4  xdc_runtime_Startup_firstFxns__C                                
00011929  xdc_runtime_Startup_getState__I                                 
000005ac  xdc_runtime_Startup_lastFxns__C                                 
000007d0  xdc_runtime_Startup_maxPasses__C                                
0001660b  xdc_runtime_Startup_reset__I                                    
1002f8e5  xdc_runtime_Startup_rtsDone__E                                  
00001ef4  xdc_runtime_Startup_sfxnRts__A                                  
00000848  xdc_runtime_Startup_sfxnRts__C                                  
00001cd4  xdc_runtime_Startup_sfxnTab__A                                  
00000958  xdc_runtime_Startup_sfxnTab__C                                  
000008d4  xdc_runtime_Startup_startModsFxn__C                             
1002f055  xdc_runtime_Startup_startMods__I                                
1002f91f  xdc_runtime_SysCallback_Module__startupDone__S                  
0000090c  xdc_runtime_SysCallback_abortFxn__C                             
1002f845  xdc_runtime_SysCallback_abort__E                                
000104e3  xdc_runtime_SysCallback_defaultAbort                            
00010553  xdc_runtime_SysCallback_defaultExit                             
000111c7  xdc_runtime_SysCallback_defaultFlush                            
00011647  xdc_runtime_SysCallback_defaultPutch                            
0001660f  xdc_runtime_SysCallback_defaultReady                            
00000758  xdc_runtime_SysCallback_exitFxn__C                              
1002f859  xdc_runtime_SysCallback_exit__E                                 
000006f4  xdc_runtime_SysCallback_flushFxn__C                             
1002f86d  xdc_runtime_SysCallback_flush__E                                
0000088c  xdc_runtime_SysCallback_putchFxn__C                             
1002f881  xdc_runtime_SysCallback_putch__E                                
000008c0  xdc_runtime_SysCallback_readyFxn__C                             
1002f895  xdc_runtime_SysCallback_ready__E                                
1002e499  xdc_runtime_System_Module_GateProxy_Handle__label__S            
1002f923  xdc_runtime_System_Module_GateProxy_enter__E                    
1002f927  xdc_runtime_System_Module_GateProxy_leave__E                    
1002ec93  xdc_runtime_System_Module_GateProxy_query__E                    
1002ec93  xdc_runtime_System_Module_GateProxy_query__E                    
2000200c  xdc_runtime_System_Module__state__V                             
1002f915  xdc_runtime_System_Module_startup__E                            
1002f91f  xdc_runtime_System_SupportProxy_Module__startupDone__S          
1002f845  xdc_runtime_System_SupportProxy_abort__E                        
1002f859  xdc_runtime_System_SupportProxy_exit__E                         
1002f86d  xdc_runtime_System_SupportProxy_flush__E                        
1002f881  xdc_runtime_System_SupportProxy_putch__E                        
1002f895  xdc_runtime_System_SupportProxy_ready__E                        
000007d8  xdc_runtime_System_abortFxn__C                                  
1002f81b  xdc_runtime_System_abortSpin__E                                 
1002f711  xdc_runtime_System_abort__E                                     
1002f559  xdc_runtime_System_atexit__E                                    
1002ecf1  xdc_runtime_System_doPrint__I                                   
0000083c  xdc_runtime_System_exitFxn__C                                   
1002f92f  xdc_runtime_System_exitSpin__E                                  
1002f7b1  xdc_runtime_System_exit__E                                      
000008dc  xdc_runtime_System_extendFxn__C                                 
1002f86d  xdc_runtime_System_flush__E                                     
000104e5  xdc_runtime_System_formatNum__I                                 
00000790  xdc_runtime_System_maxAtexitHandlers__C                         
0000a89d  xdc_runtime_System_printfExtend__I                              
1002f7e9  xdc_runtime_System_printf__E                                    
1002f92b  xdc_runtime_System_printf_va__F                                 
1002f5e5  xdc_runtime_System_processAtExit__E                             
1002f625  xdc_runtime_System_putchar__I                                   
000159b1  xdc_runtime_System_snprintf__E                                  
00016613  xdc_runtime_System_snprintf_va__F                               
1002f6b9  xdc_runtime_System_vprintf__E                                   
1002f8b9  xdc_runtime_System_vsnprintf__E                                 
000006b8  xdc_runtime_Text_charCnt__C                                     
0000204d  xdc_runtime_Text_charTab__A                                     
000006dc  xdc_runtime_Text_charTab__C                                     
1002f6e5  xdc_runtime_Text_cordText__E                                    
00000634  xdc_runtime_Text_isLoaded__C                                    
00000900  xdc_runtime_Text_nameEmpty__C                                   
000008b0  xdc_runtime_Text_nameStatic__C                                  
0000094c  xdc_runtime_Text_nameUnknown__C                                 
1002f689  xdc_runtime_Text_printVisFxn__I                                 
1002f3c5  xdc_runtime_Text_putLab__E                                      
1002f1f9  xdc_runtime_Text_putMod__E                                      
1002f15d  xdc_runtime_Text_putSite__E                                     
00000798  xdc_runtime_Text_registryModsLastId__C                          
1002f7cd  xdc_runtime_Text_ropeText__E                                    
000008c4  xdc_runtime_Text_unnamedModsLastId__C                           
00000908  xdc_runtime_Text_visitRopeFxn__C                                
000164dd  xdc_runtime_Text_visitRope__I                                   
1002f5a1  xdc_runtime_Text_xprintf__I                                     
1002f8c9  xdc_runtime_Timestamp_SupportProxy_get32__E                     
1002f8c9  xdc_runtime_Timestamp_SupportProxy_get32__E                     
1002dffd  xdc_runtime_Timestamp_SupportProxy_get64__E                     
1002dffd  xdc_runtime_Timestamp_SupportProxy_get64__E                     
1002eb3d  xdc_runtime_Timestamp_SupportProxy_getFreq__E                   
1002eb3d  xdc_runtime_Timestamp_SupportProxy_getFreq__E                   
1002f8c9  xdc_runtime_Timestamp_get32__E                                  
1002f8c9  xdc_runtime_Timestamp_get32__E                                  
1002dffd  xdc_runtime_Timestamp_get64__E                                  
1002dffd  xdc_runtime_Timestamp_get64__E                                  
1002eb3d  xdc_runtime_Timestamp_getFreq__E                                
1002eb3d  xdc_runtime_Timestamp_getFreq__E                                


GLOBAL SYMBOLS: SORTED BY Symbol Address 

address   name                                                            
-------   ----                                                            
00000000  __ASM__                                                         
00000000  ti_sysbios_family_arm_m3_Hwi_resetVectors                       
00000001  xdc_rov_runtime_Mon__checksum                                   
00000001  xdc_rov_runtime_Mon__write                                      
00000001  xdc_runtime_Startup__EXECFXN__C                                 
00000001  xdc_runtime_Startup__RESETFXN__C                                
0000003c  HMAC_ROM_Flash_JT                                               
0000007a  __ISA__                                                         
0000008d  __PLAT__                                                        
000000b4  __TARG__                                                        
000000da  __TRDR__                                                        
00000560  __STACK_SIZE                                                    
000005a4  ROM_constStruct                                                 
000005a4  xdc_runtime_Error_policy__C                                     
000005a8  xdc_runtime_IModule_Interface__BASE__C                          
000005ac  xdc_runtime_Startup_lastFxns__C                                 
000005b4  ti_sysbios_knl_Event_Object__DESC__C                            
000005d4  ti_sysbios_family_arm_m3_Hwi_excHookFuncs__C                    
000005d8  ti_sysbios_gates_GateMutex_Object__DESC__C                      
000005f8  xdc_runtime_Startup_execImpl__C                                 
000005fc  ti_sysbios_gates_GateMutex_Instance_State_sem__O                
00000600  ti_sysbios_heaps_HeapTrack_Module__FXNS__C                      
00000628  ti_sysbios_knl_Swi_Object__count__C                             
0000062c  ti_sysbios_knl_Idle_funcList__C                                 
00000634  xdc_runtime_Text_isLoaded__C                                    
00000638  ti_sysbios_knl_Clock_Object__DESC__C                            
00000658  ti_sysbios_knl_Task_Module__id__C                               
0000065c  ti_sysbios_knl_Mailbox_Instance_State_dataQue__O                
00000660  ti_sysbios_knl_Semaphore_eventSync__C                           
00000664  ti_sysbios_gates_GateMutex_Module__FXNS__C                      
00000688  ti_sysbios_knl_Task_Module_State_inactiveQ__O                   
0000068c  ti_sysbios_family_arm_m3_Hwi_Module__id__C                      
0000068e  ti_sysbios_family_arm_cc26xx_Timer_Module__id__C                
00000690  ti_sysbios_knl_Mailbox_Object__table__C                         
00000694  ti_sysbios_family_arm_m3_Hwi_Object__table__C                   
00000698  ti_sysbios_knl_Swi_Object__DESC__C                              
000006b8  xdc_runtime_Text_charCnt__C                                     
000006bc  ti_sysbios_heaps_HeapTrack_A_bufOverflow__C                     
000006c0  ti_sysbios_heaps_HeapMem_Object__table__C                       
000006c4  ti_sysbios_family_arm_cc26xx_Timer_funcHookCH1__C               
000006c8  xdc_runtime_Error_policyFxn__C                                  
000006cc  ti_sysbios_family_arm_m3_Hwi_E_reserved__C                      
000006d0  ti_sysbios_heaps_HeapTrack_A_notEmpty__C                        
000006d4  xdc_runtime_Startup_firstFxns__C                                
000006dc  xdc_runtime_Text_charTab__C                                     
000006e0  ti_sysbios_family_arm_m3_TaskSupport_stackAlignment__C          
000006e4  ti_sysbios_family_arm_m3_Hwi_NUM_INTERRUPTS__C                  
000006e8  ti_sysbios_knl_Clock_triggerClock__C                            
000006ec  ti_sysbios_knl_Swi_Object__table__C                             
000006f0  xdc_runtime_Memory_Module__id__C                                
000006f2  ti_sysbios_knl_Swi_Module__id__C                                
000006f4  xdc_runtime_SysCallback_flushFxn__C                             
000006f8  ti_sysbios_heaps_HeapMem_Module__gateObj__C                     
000006fc  ti_sysbios_family_arm_cc26xx_Timer_startupNeeded__C             
00000700  ti_sysbios_family_arm_m3_Hwi_E_noIsr__C                         
00000704  ti_sysbios_knl_Queue_Object__DESC__C                            
00000724  ti_sysbios_family_arm_cc26xx_Timer_funcHookCH2__C               
00000728  ti_sysbios_family_arm_m3_Hwi_E_NMI__C                           
0000072c  ti_sysbios_knl_Task_Object__DESC__C                             
0000074c  xdc_runtime_Assert_E_assertFailed__C                            
00000750  ti_sysbios_gates_GateHwi_Module__id__C                          
00000754  xdc_runtime_IHeap_Interface__BASE__C                            
00000758  xdc_runtime_SysCallback_exitFxn__C                              
0000075c  ti_sysbios_heaps_HeapMem_Module__id__C                          
00000760  ti_sysbios_family_arm_m3_Hwi_excHandlerFunc__C                  
00000764  ti_sysbios_heaps_HeapMem_Module__FXNS__C                        
0000078c  ti_sysbios_family_arm_m3_Hwi_E_busFault__C                      
00000790  xdc_runtime_System_maxAtexitHandlers__C                         
00000794  ti_sysbios_knl_Queue_Object__count__C                           
00000798  xdc_runtime_Text_registryModsLastId__C                          
0000079c  ti_sysbios_knl_Task_Object__table__C                            
000007a0  ti_sysbios_knl_Mailbox_Object__DESC__C                          
000007c0  ti_sysbios_family_arm_m3_Hwi_nullIsrFunc__C                     
000007c4  ti_sysbios_knl_Clock_tickMode__C                                
000007c6  ti_sysbios_gates_GateMutex_Module__id__C                        
000007c8  ti_sysbios_knl_Swi_numPriorities__C                             
000007cc  ti_sysbios_knl_Task_numConstructedTasks__C                      
000007d0  xdc_runtime_Startup_maxPasses__C                                
000007d4  ti_sysbios_knl_Task_initStackFlag__C                            
000007d8  xdc_runtime_System_abortFxn__C                                  
000007dc  ti_sysbios_knl_Mailbox_Instance_State_dataSem__O                
000007e0  ti_sysbios_gates_GateHwi_Module__FXNS__C                        
00000804  ti_sysbios_hal_Hwi_Object__DESC__C                              
00000824  ti_sysbios_family_arm_m3_Hwi_priGroup__C                        
00000828  xdc_runtime_Error_E_memory__C                                   
0000082c  ti_sysbios_family_arm_m3_Hwi_E_alreadyDefined__C                
00000830  ti_sysbios_knl_Mailbox_Instance_State_freeSem__O                
00000834  ti_sysbios_knl_Queue_Object__table__C                           
00000838  ti_sysbios_knl_Semaphore_eventPost__C                           
0000083c  xdc_runtime_System_exitFxn__C                                   
00000840  ti_sysbios_heaps_HeapTrack_A_doubleFree__C                      
00000844  ti_sysbios_heaps_HeapMem_reqAlign__C                            
00000848  xdc_runtime_Startup_sfxnRts__C                                  
0000084c  ti_sysbios_knl_Semaphore_Object__DESC__C                        
0000086c  ti_sysbios_gates_GateHwi_Object__DESC__C                        
0000088c  xdc_runtime_SysCallback_putchFxn__C                             
00000890  ti_sysbios_heaps_HeapMem_Object__count__C                       
00000894  ti_sysbios_family_arm_m3_Hwi_numSparseInterrupts__C             
00000898  ti_sysbios_knl_Mailbox_maxTypeAlign__C                          
0000089c  ti_sysbios_family_arm_cc26xx_TimestampProvider_useClockTimer__C 
000008a0  ti_sysbios_knl_Event_Instance_State_pendQ__O                    
000008a4  ti_sysbios_knl_Task_allBlockedFunc__C                           
000008a8  ti_sysbios_family_arm_m3_Hwi_E_hardFault__C                     
000008ac  ti_sysbios_knl_Mailbox_Object__count__C                         
000008b0  xdc_runtime_Text_nameStatic__C                                  
000008b4  ti_sysbios_family_arm_m3_Hwi_E_debugMon__C                      
000008b8  ti_sysbios_family_arm_m3_Hwi_E_svCall__C                        
000008bc  ti_sysbios_knl_Clock_Module_State_clockQ__O                     
000008c0  xdc_runtime_SysCallback_readyFxn__C                             
000008c4  xdc_runtime_Text_unnamedModsLastId__C                           
000008c8  ti_sysbios_knl_Task_defaultStackSize__C                         
000008cc  xdc_runtime_IGateProvider_Interface__BASE__C                    
000008d0  ti_sysbios_family_arm_m3_Hwi_E_hwiLimitExceeded__C              
000008d4  xdc_runtime_Startup_startModsFxn__C                             
000008d8  ti_sysbios_knl_Semaphore_Instance_State_pendQ__O                
000008dc  xdc_runtime_System_extendFxn__C                                 
000008e0  ti_sysbios_family_arm_m3_Hwi_Object__DESC__C                    
00000900  xdc_runtime_Text_nameEmpty__C                                   
00000904  ti_sysbios_family_arm_m3_Hwi_Object__count__C                   
00000908  xdc_runtime_Text_visitRopeFxn__C                                
0000090c  xdc_runtime_SysCallback_abortFxn__C                             
00000910  ti_sysbios_knl_Task_defaultStackHeap__C                         
00000914  ti_sysbios_family_arm_m3_Hwi_E_usageFault__C                    
00000918  ti_sysbios_family_arm_m3_Hwi_ccr__C                             
0000091c  ti_sysbios_heaps_HeapTrack_Module__id__C                        
00000920  ti_sysbios_heaps_HeapMem_E_memory__C                            
00000924  ti_sysbios_family_arm_m3_Hwi_E_memFault__C                      
00000928  ti_sysbios_knl_Task_Object__count__C                            
0000092c  ti_sysbios_heaps_HeapMem_Object__DESC__C                        
0000094c  xdc_runtime_Text_nameUnknown__C                                 
00000950  xdc_runtime_Memory_defaultHeapInstance__C                       
00000954  ti_sysbios_knl_Mailbox_Instance_State_freeQue__O                
00000958  xdc_runtime_Startup_sfxnTab__C                                  
0000095c  FH_ROM_Flash_JT                                                 
00000f2c  _ctypes_                                                        
0000112d  FH_stateMatrix                                                  
00001227  macPibTbl                                                       
0000131f  aesccmCC26XXHWAttrs                                             
00001320  LMAC_ROM_Flash_JT                                               
000013ec  RF_cmdFs_2gfsk50kbps154g                                        
00001404  RF_cmdPropCs_2gfsk50kbps154g                                    
00001420  RF_cmdPropTxAdv_2gfsk50kbps154g                                 
00001440  RF_cmdPropRadioDivSetup_2gfsk50kbps154g                         
00001468  RF_cmdPropRxAdv_2gfsk50kbps154g                                 
00001498  FHPIB_defaults                                                  
00001524  macPibDefaults                                                  
00001631  Cllc_keySource                                                  
000016a4  macAssociatingSt                                                
00001716  macIdleSt                                                       
00001788  macPollingSt                                                    
000017fa  macScanningSt                                                   
0000186c  macStartingSt                                                   
000018e0  ICALL_OSAL_ROM_Flash_JT                                         
0000194c  macRfDriverTable                                                
000019b8  macSecurityPibTbl                                               
00001a10  resourceDB                                                      
00001a64  macMRFSKStdPhyTable                                             
00001afc  ROM_externFuncPtrs                                              
00001b44  macCryptoDriverTable                                            
00001b84  macTimerRolloverValue                                           
00001be0  BoardGpioInitTable                                              
00001bfc  macCmdIncludeFHIe                                               
00001c34  NVSCC26XX_fxnTable                                              
00001c5c  UARTCC26XX_fxnTable                                             
00001c84  ti_sysbios_heaps_HeapCallback_Module__FXNS__C                   
00001cd4  xdc_runtime_Startup_sfxnTab__A                                  
00001d20  UART_defaultParams                                              
00001d44  ti_sysbios_gates_GateMutexPri_Module__FXNS__C                   
00001dc8  ti_sysbios_gates_GateMutexPri_Object__DESC__C                   
00001de8  ti_sysbios_heaps_HeapCallback_Object__DESC__C                   
00001e24  ti_sysbios_heaps_HeapCallback_Object__PARAMS__C                 
00001e58  PWM_defaultParams                                               
00001e88  macSendMsgBufSize                                               
00001ea0  ti_sysbios_gates_GateMutexPri_Object__PARAMS__C                 
00001eb8  GPIOCC26XX_config                                               
00001ecc  PowerCC26X2_config                                              
00001ef4  xdc_runtime_Startup_sfxnRts__A                                  
00001f08  msacbackSizeTable                                               
00001f1b  Display_count                                                   
00001f1c  CONFIG_AESCCM_0_CONST                                           
00001f1d  AESCCM_count                                                    
00001f1e  CONFIG_GPIO_BTN1_CONST                                          
00001f1f  CONFIG_GPIO_BTN2_CONST                                          
00001f20  CONFIG_GPIO_RLED_CONST                                          
00001f21  CONFIG_GPIO_GLED_CONST                                          
00001f22  CONFIG_NVSINTERNAL_CONST                                        
00001f23  NVS_count                                                       
00001f24  CONFIG_DISPLAY_UART_CONST                                       
00001f25  UART_count                                                      
00001f26  CONFIG_BTN_LEFT_CONST                                           
00001f27  CONFIG_BTN_RIGHT_CONST                                          
00001f28  Button_count                                                    
00001f29  CONFIG_LED_RED_CONST                                            
00001f2a  CONFIG_LED_GREEN_CONST                                          
00001f2b  LED_count                                                       
00001f2c  AESCCM_defaultParams                                            
00001f3c  Button_config                                                   
00001f4c  Button_defaultParams                                            
00001f5c  LED_config                                                      
00001f6c  TRNG_defaultParams                                              
00001f8c  macIEEEPhyTable                                                 
00001f9c  outPinTypes                                                     
00001fac  macCmdBufSize                                                   
00001fba  macTxFrameFailed                                                
00001fc8  macTxFrameSuccess                                               
00001fe4  macCbackEventTbl                                                
00001ff0  macSendMsgDataSize                                              
00001ffc  NVS_config                                                      
00002008  RFCC26XX_hwAttrs                                                
00002014  UART_config                                                     
00002020  inPinTypes                                                      
0000202c  outPinStrengths                                                 
00002038  xdc_runtime_Startup_firstFxns__A                                
00002044  macCmdLen                                                       
0000204d  xdc_runtime_Text_charTab__A                                     
00002068  fhSupFrameTypes                                                 
00002070  macAuthTagLen                                                   
00002078  AESCCM_config                                                   
00002080  LED_defaultParams                                               
00002088  PINCC26XX_hwAttrs                                               
00002090  RFCC26XX_schedulerPolicy                                        
000020a8  ti_sysbios_family_arm_m3_Hwi_excHookFuncs__A                    
000020c8  macKeySourceLen                                                 
000020d0  NVS_defaultParams                                               
000020d4  ti_sysbios_gates_GateMutexPri_Instance_State_pendQ__O           
000020d8  ti_sysbios_heaps_HeapCallback_Object__count__C                  
000020dc  ti_sysbios_heaps_HeapCallback_allocInstFxn__C                   
000020e0  ti_sysbios_heaps_HeapCallback_createInstFxn__C                  
000020e4  ti_sysbios_heaps_HeapCallback_deleteInstFxn__C                  
000020e8  ti_sysbios_heaps_HeapCallback_freeInstFxn__C                    
000020ec  ti_sysbios_heaps_HeapCallback_getStatsInstFxn__C                
000020f0  ti_sysbios_heaps_HeapCallback_initInstFxn__C                    
000020f4  ti_sysbios_heaps_HeapCallback_isBlockingInstFxn__C              
000020f8  ti_sysbios_knl_Clock_tickPeriod__C                              
000020fc  ti_sysbios_knl_Idle_funcList__A                                 
00002535  rfSelect                                                        
00002929  Csf_processEvents                                               
00002d17  NOROM_RFCCpePatchReset                                          
00002d19  Csf_init                                                        
000030c9  macRxCb                                                         
00003ed1  macRadioCsmaTxCb                                                
000044a1  macTxFrame                                                      
00004735  macPwrVote                                                      
000052f9  macSendReceiveCmdIeee                                           
00005515  macRadioInitSubG                                                
0000572d  RF_scheduleCmd                                                  
0000593d  macSendReceiveCmdSubG                                           
00005d51  RF_open                                                         
00005f51  macWrapperAddKeyInitFCtr                                        
00006305  PIN_init                                                        
0000684d  macRxBeaconCritical                                             
000069f9  macWrapperDeleteKeyAndAssociatedDevices                         
00006b9d  Power_sleep                                                     
00006d35  macWrapperDeleteDevice                                          
0000705d  macIncomingFrameSecurity                                        
00007683  _nop                                                            
00007805  Power_init                                                      
00007979  macRadioTxPrepCsmaUnslotted                                     
00007ae5  UARTCC26XX_open                                                 
00007c49  macWrapperDeleteAllDevices                                      
00007dad  txCsmaDelay                                                     
00007f11  NOROM_SysCtrlStandby                                            
00008319  UARTCC26XX_hwiIntFxn                                            
000086fd  macRadioLbtTxCb                                                 
00008c11  RF_close                                                        
00008e8d  UARTCC26XX_read                                                 
00009101  NVSCC26XX_write                                                 
00009239  macBuildDataFrame                                               
000095d9  CUI_init                                                        
00009709  macRadioInitIeee                                                
00009839  strtol                                                          
00009969  CUI_statusLinePrintf                                            
00009a8d  Csf_deviceUpdate                                                
00009ccd  macLowLevelBufferInit                                           
00009de5  macSetupRATChanCompare                                          
0000a015  MAC_CbackEvent                                                  
0000a23d  CUI_menuActionHelp                                              
0000a34d  GPIO_setConfig                                                  
0000a45d  LED_open                                                        
0000a67d  macEdScanISR                                                    
0000a78d  macScanNextChan                                                 
0000a89d  xdc_runtime_System_printfExtend__I                              
0000a9a3  macApiPwrOnReq                                                  
0000aaa9  CUI_statusLineResourceRequest                                   
0000aba9  Collector_init                                                  
0000aca5  macOutgoingFrameKeyDescRetrieval                                
0000af89  macScanRxCoordRealign                                           
0000b165  Button_open                                                     
0000b335  macSetupReceiveCmd                                              
0000b41d  macOutgoingFrameSecurity                                        
0000b501  macTxChannelBusyCallback                                        
0000b6c9  Collector_sendConfigRequest                                     
0000b7a9  UARTCC26XX_write                                                
0000b889  macBuildHeaderIes                                               
0000b965  RF_control                                                      
0000ba3d  RF_pendCmd                                                      
0000bbed  macCcmStarTransform                                             
0000be6f  macMcuBitReverse                                                
0000bf41  macSymbolTimerTriggerCallback                                   
0000c00d  PowerCC26XX_standbyPolicy                                       
0000c0d5  Cllc_removeDevice                                               
0000c199  Button_init                                                     
0000c199  GPIO_init                                                       
0000c25d  macApiStartReq                                                  
0000c3e1  Power_releaseDependency                                         
0000c561  macMgmtReset                                                    
0000c621  macAutoPoll                                                     
0000c6dd  macGetRFCmdDuration                                             
0000c799  Power_setDependency                                             
0000c909  MAC_PwrOffReq                                                   
0000c9bd  TRNG_generateEntropy                                            
0000cb25  MAC_SrcMatchAddEntry                                            
0000cbd5  macStopCmd                                                      
0000cd31  PIN_open                                                        
0000cddd  macApiBeaconStartReq                                            
0000ce89  macBeaconCheckTxTime                                            
0000cf35  macTaskInit                                                     
0000d08d  NOROM_SetupTrimDevice                                           
0000d08d  ti_sysbios_family_arm_cc26xx_Boot_trimDevice                    
0000d285  macTrackTimeoutCallback                                         
0000d3d1  macCcmStarInverseTransform                                      
0000d475  macRadioTxPrepLbt                                               
0000d519  macRadioUpdateTxPower                                           
0000d5bd  RF_requestAccess                                                
0000d65d  __TI_auto_init                                                  
0000d6fd  macBlacklistChecking                                            
0000d79d  ti_sysbios_knl_Task_setPri__E                                   
0000d83d  Cllc_init                                                       
0000d975  macRadioStartScan                                               
0000da11  macTimerRealign                                                 
0000daad  __aeabi_memcpy                                                  
0000daad  __aeabi_memcpy4                                                 
0000daad  __aeabi_memcpy8                                                 
0000daad  memcpy                                                          
0000db49  txComplete                                                      
0000ddad  __aeabi_uldivmod                                                
0000de43  macRadioSetRE                                                   
0000de45  Csf_updateFrameCounter                                          
0000df6d  RF_getInfo                                                      
0000e095  macIncomingSecurityLevelChecking                                
0000e129  macRadioUpdateChannel                                           
0000e1bd  macRadioUpdateChannelRx                                         
0000e251  macRatCb_A                                                      
0000e2e5  macSetupFsCmd                                                   
0000e379  UARTCC26XX_writeCancel                                          
0000e40b  __aeabi_idiv0                                                   
0000e40b  __aeabi_ldiv0                                                   
0000e40d  Board_initHook                                                  
0000e40d  CC1352R1_LAUNCHXL_shutDownExtFlash                              
0000e49d  MAC_ResumeReq                                                   
0000e5bd  macCcmDecrypt                                                   
0000e64d  macTrackStartCallback                                           
0000e6dd  OsalPort_malloc                                                 
0000e769  OsalPort_setTimer                                               
0000e881  macCcmEncrypt                                                   
0000e90d  macRadioTxEnhAckCb                                              
0000e999  ti_sysbios_gates_GateMutexPri_enter__E                          
0000ea25  MAC_SrcMatchEnable                                              
0000eaad  NOROM_OSCHF_AttemptToSwitchToXosc                               
0000ec45  RF_getTxPower                                                   
0000eddd  macKeyDescriptorLookup                                          
0000ee65  macMcuOverflowSetPeriod                                         
0000eeed  macSymbolTimerInit                                              
0000effd  ApiMac_init                                                     
0000f081  Cllc_securityInit                                               
0000f291  UARTCC26XX_close                                                
0000f315  macRxOffRequest                                                 
0000f399  macTimerUpdateSymbolTimer                                       
0000f41d  NVSCC26XX_open                                                  
0000f51d  macMcuOverflowSetCompare                                        
0000f59d  macRadioWakeupCb                                                
0000f71d  scheduleNopWakeupCmd                                            
0000f79d  ti_sysbios_family_arm_cc26xx_Timer_start__E                     
0000f89d  Csf_getDeviceItem                                               
0000fa11  macRxOn                                                         
0000fa8d  osalHeapInitFxn                                                 
0000fb09  __aeabi_memclr                                                  
0000fb09  __aeabi_memclr4                                                 
0000fb09  __aeabi_memclr8                                                 
0000fb0b  __aeabi_memset                                                  
0000fb0b  __aeabi_memset4                                                 
0000fb0b  __aeabi_memset8                                                 
0000fb11  memset                                                          
0000fb83  ti_sysbios_BIOS_nullFunc__I                                     
0000fb85  Cllc_restoreNetwork                                             
0000fc75  macTimerSetRollover                                             
0000fced  Csf_getDevice                                                   
0000fdd5  PowerCC26X2_auxISR                                              
0000fe49  RF_yield                                                        
0000febd  TRNG_construct                                                  
0000ff31  ti_sysbios_gates_GateMutexPri_leave__E                          
00010017  ti_sysbios_heaps_HeapCallback_defaultDelete                     
00010089  NOROM_RFCAnaDivTxOverride                                       
00010169  PIN_add                                                         
000101d9  RF_ratDisableChannel                                            
00010249  Random_seedAutomatic                                            
00010475  __aeabi_ldivmod                                                 
000104e3  xdc_runtime_SysCallback_defaultAbort                            
000104e5  xdc_runtime_System_formatNum__I                                 
00010553  xdc_runtime_SysCallback_defaultExit                             
00010555  Csf_sendDisassociateMsg                                         
000105c1  NOROM_ChipInfo_GetChipType                                      
0001062d  RF_getCurrentTime                                               
00010699  macRadioTxBackoffBoundary                                       
00010705  macTrackPeriodCallback                                          
00010771  macTxDoneCallback                                               
00010849  Csf_getDeviceExtAdd                                             
000108b1  NOROM_OSCHF_SwitchToRcOscTurnOffXosc                            
00010981  OsalPort_registerTask                                           
00010a51  __TI_decompress_lzss                                            
00010b21  macRxHaltCleanup                                                
00010c55  Button_gpioCallbackFxn                                          
00010d1d  OsalPort_clearEvent                                             
00010d81  OsalPort_pwrmgrTaskState                                        
00010e49  UARTCC26XX_control                                              
00010f11  macRequestBackoff                                               
00010f75  macSymbolTimerRolloverCallback                                  
00010fd9  macTimerAddTimer                                                
0001103d  main                                                            
000110a1  Board_sendExtFlashByte                                          
00011165  UARTCC26XX_swiIntFxn                                            
000111c7  xdc_runtime_SysCallback_defaultFlush                            
00011229  CryptoResourceCC26XX_constructRTOSObjects                       
00011289  GPIO_write                                                      
000113a9  macGetRadioTxPowerReg                                           
00011409  macTimerCancel                                                  
00011469  macTimerGetNextTimer                                            
000115e9  convertTxOptions                                                
00011647  xdc_runtime_SysCallback_defaultPutch                            
000116a5  OsalPort_msgReceive                                             
00011701  OsalPort_setEvent                                               
0001175d  PIN_remove                                                      
00011815  macSetDefaultsByPatch                                           
00011929  xdc_runtime_Startup_getState__I                                 
000119dd  PowerCC26X2_initiateCalibration                                 
00011a35  RF_TxPowerTable_findValue                                       
00011ae5  TRNG_init                                                       
00011b3d  ResetISR                                                        
00011b3d  _c_int00                                                        
00011b95  macRadioTxRequestTxAck                                          
00011bed  LED_startBlinking                                               
00011c43  RF_defaultSubmitPolicy                                          
00011c99  AESCCM_construct                                                
00011ced  Cllc_addSecDevice                                               
00011d41  NOROM_PRCMPowerDomainsAllOff                                    
00011de9  NVSCC26XX_init                                                  
00011e91  StructRingBuf_put                                               
00011ee5  SwiP_construct                                                  
00011f39  macIncomingKeyUsagePolicyChecking                               
00011f8d  macRadioSetChannel                                              
00011fe1  macRadioSetChannelRx                                            
00012035  macTxAckReceivedCallback                                        
00012185  GPIO_enableInt                                                  
000122c5  macCanSleep                                                     
00012315  macRadioSetPanCoordinator                                       
00012365  macRxDisable                                                    
000123b5  macTimerStart                                                   
000124a1  NOROM_PRCMPowerDomainsAllOn                                     
00012539  OsalPort_msgSend                                                
000125d1  StructRingBuf_get                                               
0001261d  UARTCC26XX_readCancel                                           
00012669  atoi                                                            
000126b5  copy_in                                                         
00012701  macRadioTxHandleAck                                             
0001274d  macSendFsCmd                                                    
00012799  osalHeapGetStatsFxn                                             
000127e5  Board_wakeUpExtFlash                                            
0001282d  CC1352R1_LAUNCHXL_wakeUpExtFlash                                
00012875  Csf_getNumDeviceListEntries                                     
000128bd  NOROM_RFCSynthPowerDown                                         
0001294d  NVS_open                                                        
00012995  PIN_setOutputEnable                                             
000129dd  PowerCC26X2_RCOSC_clockFunc                                     
00012a25  PowerCC26XX_switchXOSC_HF                                       
00012ab5  UtilTimer_construct                                             
00012b8d  macRadioNeedAdjustPower                                         
00012bd5  macRadioStopScan                                                
00012c1d  macTimerUpdActive                                               
00012d3d  RingBuf_put                                                     
00012d83  macDeviceDescriptorLookup                                       
00012dc9  Cllc_sendDisassociationRequest                                  
00012e0d  GPIO_disableInt                                                 
00012e51  MAC_PwrNextTimeout                                              
00012e95  NOROM_ChipInfo_GetHwRevision                                    
00012ed9  NVSCC26XX_read                                                  
00012f61  PWM_init                                                        
00012fa5  UART_init                                                       
00012fe9  macTxTimestampCallback                                          
0001306f  ClockP_construct                                                
000130b1  ClockP_create                                                   
000130f1  Csf_getNetworkInformation                                       
00013131  NOROM_OSC_HPOSCRelativeFrequencyOffsetGet                       
00013171  OsalPort_free                                                   
000131b1  PWM_open                                                        
000131f1  PowerCC26XX_isStableXOSC_HF                                     
00013231  Random_getNumber                                                
00013271  RingBuf_get                                                     
000132f1  UART_open                                                       
000133b1  macLowLevelYield                                                
000133f1  macRatCb_B                                                      
00013431  macRxNokIsr                                                     
000134b1  macSymbolTimerSetTrigger                                        
000134f1  macTxUpdateIE                                                   
00013531  __aeabi_uidiv                                                   
00013531  __aeabi_uidivmod                                                
000135b1  ti_sysbios_family_arm_cc26xx_Timer_setThreshold__I              
000135f1  ti_sysbios_heaps_HeapCallback_Module_startup__E                 
00013631  HwiP_construct                                                  
0001366f  LED_setBrightnessLevel                                          
000136ad  OsalPort_msgEnqueueMax                                          
00013729  LED_setOff                                                      
00013765  MAC_PwrOnReq                                                    
000137dd  PIN_setInterrupt                                                
00013819  PIN_setOutputValue                                              
00013981  macTimerRecalcUnaligned                                         
000139bd  macTxDecrypt                                                    
000139f9  ti_sysbios_family_arm_m3_Hwi_construct2__E                      
00013a35  Board_shutDownExtFlash                                          
00013a6d  Cllc_setJoinPermit                                              
00013aa5  Collector_sendDeviceTypeRequest                                 
00013add  Collector_sendToggleLedRequest                                  
00013b4d  PIN_setConfig                                                   
00013bbd  RF_powerConstraintRelease                                       
00013c2d  macTimerAligned                                                 
00013c65  macTimerInit                                                    
00013c9d  macTxAckNotReceivedCallback                                     
00013cd5  macTxFrameIsr                                                   
00013d7d  ti_sysbios_family_arm_cc26xx_Timer_getCurrentTick__E            
00013ded  ApiMac_convertCapabilityInfo                                    
00013e23  LED_setOn                                                       
00013e59  ti_sysbios_family_arm_cc26xx_Timer_setNextTick__E               
00013e91  Csf_setTrackingClock                                            
00013ec5  NOROM_SysCtrlIdle                                               
00013f61  macCheckPhyRate                                                 
00013f95  macLowLevelDiags                                                
00013fc9  macRadioSetIEEEAddr                                             
00013ffd  macRatDisableChannelB                                           
00014031  macSymbolTimerCount                                             
00014031  macTimerGetTime                                                 
000140cd  strncpy                                                         
00014101  ti_sysbios_knl_Swi_setPri__E                                    
00014169  OsalPort_msgExtract                                             
0001419b  ti_sysbios_gates_GateMutexPri_insertPri__I                      
000141cd  Cllc_getFormingPanId                                            
000141fd  Csf_setConfigClock                                              
0001422d  GPIO_hwiIntFxn                                                  
0001425d  GPIO_setCallback                                                
000142bd  NVSCC26XX_erase                                                 
000142ed  PINCC26XX_setMux                                                
0001431d  Power_releaseConstraint                                         
0001434d  Power_setConstraint                                             
000143ad  Temperature_unregisterNotify                                    
0001443d  macRxHardDisable                                                
0001446d  macRxSoftDisable                                                
0001449d  macSymbolTimerBCWakeUp                                          
000144cd  macSymbolTimerICallTimerCback                                   
000144fd  macTimerCheckUnAlignedQ                                         
0001452d  ti_sysbios_BIOS_atExitFunc__I                                   
0001455d  ti_sysbios_BIOS_startFunc__I                                    
0001458d  ti_sysbios_family_arm_cc26xx_Timer_initDevice__I                
000145bd  ti_sysbios_gates_GateMutexPri_Object__create__S                 
000145ed  ti_sysbios_gates_GateMutexPri_create                            
0001461d  ti_sysbios_heaps_HeapCallback_Object__create__S                 
0001464d  ti_sysbios_knl_Clock_getTimeout__E                              
0001467d  Csf_getDeviceShort                                              
000146ab  OsalPort_msgDequeue                                             
000146d9  OsalPort_msgEnqueue                                             
00014763  malloc                                                          
00014791  NVS_init                                                        
000147e9  SemaphoreP_constructBinary                                      
00014815  SemaphoreP_createBinary                                         
0001486d  rf_patch_cpe_prop                                               
000148c5  macRadioSetPanID                                                
000148f1  macRadioSetShortAddr                                            
0001491d  macRxSoftEnable                                                 
00014949  macSymbolTimerSetRollover                                       
00014975  macTxRequestCsmaRtcDelay                                        
000149a1  sAddrCmp                                                        
000149cd  ti_sysbios_gates_GateMutexPri_Handle__label__S                  
000149f9  ti_sysbios_heaps_HeapCallback_Handle__label__S                  
00014a25  ti_sysbios_knl_Clock_getTicksUntilInterrupt__E                  
00014a51  List_insert                                                     
00014a7b  MAC_SrcMatchDeleteEntry                                         
00014af9  GPIO_read                                                       
00014b21  NOROM_RFCOverrideSearch                                         
00014b99  Power_registerNotify                                            
00014be9  macMcuInit                                                      
00014c11  macRxEnable                                                     
00014c39  macTxAbortIsr                                                   
00014cb1  List_put                                                        
00014cd7  List_putHead                                                    
00014cfd  List_remove                                                     
00014d23  strncat                                                         
00014d49  NOROM_OSCHF_TurnOnXosc                                          
00014d6d  NOROM_RFCDoorbellSendTo                                         
00014e69  macRadioSwInit                                                  
00014eb1  macSymbolTimerPowerDown                                         
00014ed5  macTimer                                                        
00014ef9  memcmp                                                          
00014f65  ti_sysbios_BIOS_registerRTSLock__I                              
00014f89  ti_sysbios_BIOS_removeRTSLock__I                                
00014fad  ti_sysbios_family_arm_cc26xx_Timer_getMaxTicks__E               
00014fd1  ti_sysbios_gates_GateMutexPri_Object__delete__S                 
00014ff5  ti_sysbios_heaps_HeapCallback_Object__delete__S                 
00015019  CryptoUtils_buffersMatch                                        
0001503b  LED_stopBlinking                                                
0001505d  List_get                                                        
0001507f  OsalPort_msgAllocate                                            
000150c3  radioComputeED                                                  
000150e5  Board_init                                                      
00015145  HwiP_setFunc                                                    
00015165  MAC_SrcMatchAckAllPending                                       
000151a5  OsalPort_memcmp                                                 
000151c5  OsalPort_msgDeallocate                                          
00015205  Power_unregisterNotify                                          
000152a5  RF_setTxPower                                                   
000152c5  crc_update                                                      
000152e5  macGetRadioState                                                
00015305  macRxOff                                                        
00015325  macTxFrameRetransmit                                            
00015465  ti_sysbios_BIOS_rtsLock__I                                      
00015485  ti_sysbios_family_arm_cc26xx_Timer_dynamicStub__E               
000154a5  OsalPort_buildUint32                                            
000154c3  PIN_close                                                       
000154e1  Power_getTransitionLatency                                      
000154ff  macPibIndex                                                     
00015595  Cllc_findDevice                                                 
000155b1  Cllc_securityFill                                               
000155cd  Cllc_setChanMask                                                
000155e9  NOROM_ChipInfo_GetChipFamily                                    
00015605  NOROM_FlashProgram                                              
00015621  NOROM_FlashSectorErase                                          
00015675  NVSCC26XX_getAttrs                                              
00015691  NVSCC26XX_lock                                                  
000156c9  PowerCC26XX_schedulerDisable                                    
000156e5  PowerCC26XX_schedulerRestore                                    
00015701  RF_ScheduleCmdParams_init                                       
00015755  RF_getRssi                                                      
00015771  RF_powerConstraintSet                                           
000157a9  macMcuTimerCapture                                              
000157c5  macNopBackoffTimerExpiry                                        
000157e1  macRadioEnergyDetectStop                                        
000157fd  macRadioInit                                                    
00015819  macRadioTxGo                                                    
00015835  macRxAckTxDoneCallback                                          
00015835  macTxAckIsr                                                     
00015851  macTimerRemoveTimer                                             
00015889  sAddrExtCmp                                                     
000158f9  ti_sysbios_knl_Swi_construct2__E                                
00015915  LED_toggle                                                      
0001592f  OsalPort_enterCS                                                
00015949  PowerCC26XX_calibrate                                           
00015963  copyApiMacAddrToMacAddr                                         
0001597d  macCheckPhyMode                                                 
00015997  macMcuLongDiv                                                   
000159b1  xdc_runtime_System_snprintf__E                                  
000159cd  NOROM_ChipInfo_GetPackageType                                   
00015a15  OsalPort_msgPush                                                
00015a2d  Power_idleFunc                                                  
00015a45  RF_cancelCmd                                                    
00015a75  SwiP_setPriority                                                
00015aa5  UART_Params_init                                                
00015abd  _args_main                                                      
00015b35  macCsmaTimerExpiry                                              
00015b4d  macRadioSetTxPower                                              
00015b65  macRxBackoffTimerExpiry                                         
00015b7d  macRxOnRequest                                                  
00015bad  macSymbolBCTimerPowerUp                                         
00015bc5  macSymbolTimerRestore                                           
00015bdd  macSymbolTimerSetTriggerRollover                                
00015bf5  macTimerSyncRollover                                            
00015c0d  macTxBackoffTimerExpiry                                         
00015c25  macWrapper8ByteUnused                                           
00015c6d  __aeabi_lmul                                                    
00015cb5  ti_sysbios_BIOS_rtsUnlock__I                                    
00015ccd  ti_sysbios_gates_GateMutexPri_Instance_init__E                  
00015ce5  ti_sysbios_heaps_HeapCallback_Instance_init__E                  
00015cfd  ti_sysbios_knl_Swi_or__E                                        
00015d45  xdc_runtime_Error_init__E                                       
00015d5d  xdc_runtime_Startup_exec__I                                     
00015d75  OsalPort_leaveCS                                                
00015da1  Util_clearEvent                                                 
00015db7  Util_setEvent                                                   
00015dcd  ti_sysbios_BIOS_exitFunc__I                                     
00015de3  ti_sysbios_knl_Task_block__E                                    
00015df9  AESCCM_init                                                     
00015e0d  CUI_menuActionBack                                              
00015e21  List_clearList                                                  
00015e35  MAC_CbackCheckPending                                           
00015e49  MAC_CbackQueryRetransmit                                        
00015e5d  MAC_SrcMatchCheckAllPending                                     
00015e71  NOROM_RFCCpeIntGetAndClear                                      
00015e85  PWM_Params_init                                                 
00015e99  PowerCC26X2_calibrate                                           
00015ead  RF_Params_init                                                  
00015ec1  RF_RatConfigCompare_init                                        
00015ee9  RF_flushCmd                                                     
00015efd  RF_ratCompare                                                   
00015f25  StructRingBuf_construct                                         
00015f39  TRNG_close                                                      
00015f4d  Temperature_getTemperature                                      
00015f9d  macMcuOverflowCapture                                           
00015fb1  sAddrCpy                                                        
00015fc5  sAddrExtCpy                                                     
00015fed  ti_sysbios_family_arm_cc26xx_Timer_getCount64__E                
00016001  ti_sysbios_heaps_HeapCallback_Object__get__S                    
00016015  ti_sysbios_knl_Clock_doTick__I                                  
0001603d  LED_Params_init                                                 
0001604f  RF_getCmdOp                                                     
00016061  RingBuf_construct                                               
00016073  SemaphoreP_pend                                                 
00016085  AESCCM_Params_init                                              
00016095  AESCCM_open                                                     
000160a5  Button_Params_init                                              
000160b5  Cllc_getDefaultKey                                              
000160c5  ClockP_isActive                                                 
000160d5  GPIO_getConfig                                                  
000160e5  HwiP_Params_init                                                
000160f5  Main_assertHandler                                              
00016105  NOROM_RFCHwIntGetAndClear                                       
00016115  PINCC26XX_getPinCount                                           
00016145  SwiP_Params_init                                                
00016155  UtilTimer_isActive                                              
00016165  ti_sysbios_family_arm_m3_Hwi_post__E                            
00016165  ti_sysbios_hal_Hwi_HwiProxy_post__E                             
00016165  ti_sysbios_hal_Hwi_post__E                                      
00016175  ti_sysbios_gates_GateMutexPri_Instance_finalize__E              
00016185  ti_sysbios_heaps_HeapCallback_Instance_finalize__E              
00016195  ti_sysbios_heaps_HeapCallback_alloc__E                          
000161a5  ti_sysbios_heaps_HeapCallback_free__E                           
000161b5  ti_sysbios_heaps_HeapCallback_getStats__E                       
000161c5  ti_sysbios_heaps_HeapCallback_isBlocking__E                     
000161f5  ApiMac_mlmeSetReqBool                                           
00016203  ApiMac_mlmeSetReqUint16                                         
00016211  ApiMac_mlmeSetReqUint8                                          
0001621f  CryptoKeyPlaintext_initBlankKey                                 
0001622d  CryptoKeyPlaintext_initKey                                      
0001623b  NVS_write                                                       
00016257  StructRingBuf_isFull                                            
00016265  Util_buildUint32                                                
00016273  __TI_decompress_none                                            
00016281  ti_sysbios_family_arm_cc26xx_TimestampProvider_get32__E         
0001628f  AESCCM_close                                                    
0001629d  Cllc_getChanMask                                                
000162a9  ClockP_delete                                                   
000162b5  ClockP_getSystemTickPeriod                                      
000162c1  MAC_PwrMode                                                     
000162cd  NOROM_CPUcpsid                                                  
000162d9  NOROM_CPUcpsie                                                  
000162f1  NVSCC26XX_unlock                                                
00016309  OsalPort_stopTimer                                              
00016315  PIN_registerIntCb                                               
00016321  Power_getConstraintMask                                         
0001632d  Power_getDependencyCount                                        
00016339  RF_powerConstraintGet                                           
00016345  SemaphoreP_delete                                               
00016351  _register_lock                                                  
0001635d  _register_unlock                                                
00016369  __TI_zero_init                                                  
00016375  macLowLevelReset                                                
00016381  macLowLevelResume                                               
0001638d  macPwrReset                                                     
00016399  macRegisterSfdDetect                                            
000163a5  macRxSequenceNum                                                
000163bd  ti_sysbios_gates_GateMutexPri_Params__init__S                   
000163c9  ti_sysbios_knl_Queue_insert__E                                  
000163d5  ti_sysbios_knl_Swi_getTrigger__E                                
000163e1  ClockP_Params_init                                              
000163eb  FHIEPATCH_getPieId                                              
000163f5  NVS_erase                                                       
000163ff  NVS_getAttrs                                                    
00016409  NVS_read                                                        
00016413  PWM_close                                                       
0001641d  PWM_setDuty                                                     
00016427  PWM_start                                                       
00016431  UART_close                                                      
0001643b  UART_control                                                    
00016445  UART_read                                                       
0001644f  UART_readCancel                                                 
00016459  UART_write                                                      
00016463  UART_writeCancel                                                
0001646d  Util_copyExtAddr                                                
00016477  macMcuRandomByte                                                
00016477  macRadioRandomByte                                              
0001648b  AESCCM_Operation_init                                           
00016493  ApiMac_mlmeSetReqArray                                          
0001649b  NVSCC26XX_close                                                 
000164a3  RF_RatConfigOutput_init                                         
000164ab  UARTCC26XX_init                                                 
000164b3  UtilTimer_setTimeout                                            
000164bb  Util_breakUint32                                                
000164c3  Util_buildUint16                                                
000164cd  __aeabi_errno_addr                                              
000164dd  xdc_runtime_Text_visitRope__I                                   
000164e5  AESCCM_oneStepDecrypt                                           
000164eb  AESCCM_oneStepEncrypt                                           
000164f1  Button_setCallback                                              
000164f7  CUI_paramsInit                                                  
000164fd  Main_excHandler                                                 
00016503  NOROM_CPUdelay                                                  
00016509  NVSCC26XX_control                                               
00016515  RF_runDirectCmd                                                 
0001651b  RF_runImmediateCmd                                              
00016521  UARTCC26XX_readPolling                                          
00016527  UARTCC26XX_writePolling                                         
0001652d  Util_hiUint16                                                   
00016533  assertHandler                                                   
0001653f  macTxBackoffHandler                                             
00016545  osalHeapAllocFxn                                                
0001654b  osalHeapFreeFxn                                                 
00016551  ti_sysbios_family_arm_m3_Hwi_setFunc__E                         
00016557  ApiMac_mcpsDataReq                                              
0001655b  ApiMac_mlmeSetSecurityReqStruct                                 
00016563  ClockP_destruct                                                 
00016567  ClockP_getCpuFreq                                               
0001656b  ClockP_getTimeout                                               
0001656f  ClockP_setTimeout                                               
00016573  ClockP_start                                                    
00016577  ClockP_stop                                                     
0001657b  FHIEPATCH_extractHie                                            
0001657f  FHIEPATCH_extractPie                                            
00016583  FHIEPATCH_genHie                                                
00016587  FHIEPATCH_genPieContent                                         
0001658b  FHIEPATCH_getHieLen                                             
0001658f  FHIEPATCH_getPieContentLen                                      
00016593  FHIEPATCH_parseHie                                              
00016597  FHIEPATCH_parsePie                                              
0001659b  HwiP_destruct                                                   
0001659f  HwiP_disable                                                    
000165a3  HwiP_enableInterrupt                                            
000165a7  HwiP_post                                                       
000165ab  HwiP_setPriority                                                
000165af  NOROM_RFCOverrideUpdate                                         
000165b3  RF_defaultExecutionPolicy                                       
000165b7  SemaphoreP_destruct                                             
000165bb  SemaphoreP_post                                                 
000165bf  SwiP_destruct                                                   
000165c3  SwiP_disable                                                    
000165c7  SwiP_getTrigger                                                 
000165cb  SwiP_or                                                         
000165cf  UtilTimer_start                                                 
000165d3  UtilTimer_stop                                                  
000165d7  Util_loUint16                                                   
000165df  macPibCheckByPatch                                              
000165e3  macRadioComputeLQI                                              
000165e7  macRadioTxBOBoundary                                            
000165eb  macRxBackoffHandler                                             
000165f7  osalHeapIsBlockingFxn                                           
000165fb  ti_sysbios_gates_GateMutexPri_query__E                          
000165ff  ti_sysbios_heaps_HeapCallback_defaultCreate                     
00016603  ti_sysbios_knl_Clock_isActive__E                                
00016607  ti_sysbios_knl_Task_getPri__E                                   
0001660b  xdc_runtime_Startup_reset__I                                    
0001660f  xdc_runtime_SysCallback_defaultReady                            
00016613  xdc_runtime_System_snprintf_va__F                               
00016878  __TI_static_base__                                              
00016ce8  __TI_Handler_Table_Base                                         
00016cf4  __TI_Handler_Table_Limit                                        
00016d20  __TI_CINIT_Base                                                 
00016d50  __TI_CINIT_Limit                                                
00056001  macRxFrameIsr                                                   
000570f5  macWrapperAddDevice                                             
00057539  appTaskFxn                                                      
00057e09  macIncomingFrameSecurityMaterialRetrieval                       
00057fa5  ApiMac_mlmeGetReqUint16                                         
00057fa8  __ccfg                                                          
1002b400  ti_sysbios_rom_cortexm_cc26xx_cc26x2v2_CC26xx_REVISION__C       
1002b405  ti_sysbios_family_arm_m3_Hwi_excDumpRegs__I                     
1002b82d  ti_sysbios_family_arm_m3_Hwi_excBusFault__I                     
1002b9a1  ti_sysbios_family_arm_m3_Hwi_excUsageFault__I                   
1002bb01  ti_sysbios_heaps_HeapTrack_free__E                              
1002bc61  ti_sysbios_family_arm_m3_Hwi_excMemFault__I                     
1002bda9  ti_sysbios_family_arm_m3_Hwi_excFillContext__I                  
1002beb5  ti_sysbios_family_arm_m3_Hwi_excHandlerMax__I                   
1002bfb1  ti_sysbios_knl_Semaphore_pend__E                                
1002c0a5  ti_sysbios_knl_Event_pend__E                                    
1002c185  ti_sysbios_family_arm_m3_Hwi_excHardFault__I                    
1002c251  ti_sysbios_knl_Task_Instance_init__E                            
1002c31d  ti_sysbios_family_arm_m3_Hwi_excDebugMon__I                     
1002c3d9  ti_sysbios_family_arm_m3_Hwi_postInit__I                        
1002c48d  ti_sysbios_knl_Mailbox_Instance_init__E                         
1002c53d  ti_sysbios_knl_Clock_workFuncDynamic__E                         
1002c5d9  ti_sysbios_heaps_HeapTrack_Instance_finalize__E                 
1002c671  ti_sysbios_knl_Task_Instance_finalize__E                        
1002c709  ti_sysbios_family_arm_cc26xx_Timer_periodicStub__E              
1002c79d  ti_sysbios_family_arm_m3_Hwi_Instance_init__E                   
1002c831  ti_sysbios_family_arm_m3_Hwi_initNVIC__E                        
1002c8c1  ti_sysbios_heaps_HeapTrack_alloc__E                             
1002c94d  ti_sysbios_knl_Clock_startI__E                                  
1002c9d5  ti_sysbios_knl_Swi_restoreHwi__E                                
1002ca59  ti_sysbios_knl_Task_postInit__I                                 
1002cad9  ti_sysbios_knl_Clock_workFunc__E                                
1002cb51  ti_sysbios_heaps_HeapMem_allocUnprotected__E                    
1002cbc5  ti_sysbios_knl_Clock_walkQueueDynamic__E                        
1002cc39  ti_sysbios_knl_Task_schedule__I                                 
1002ccad  ti_sysbios_knl_Task_startCore__E                                
1002cd21  ti_sysbios_knl_Semaphore_post__E                                
1002cd91  ti_sysbios_knl_Swi_run__I                                       
1002ce01  ti_sysbios_knl_Task_sleep__E                                    
1002ce71  ti_sysbios_family_arm_m3_Hwi_Instance_finalize__E               
1002cedd  ti_sysbios_family_arm_m3_Hwi_dispatchC__I                       
1002cf49  ti_sysbios_knl_Mailbox_post__E                                  
1002cfb3  ti_sysbios_knl_Event_post__E                                    
1002d01b  ti_sysbios_BIOS_linkedWithIncorrectBootLibrary__E               
1002d01d  ti_sysbios_knl_Semaphore_Instance_init__E                       
1002d081  ti_sysbios_knl_Swi_runLoop__I                                   
1002d0e1  ti_sysbios_knl_Swi_schedule__I                                  
1002d141  ti_sysbios_knl_Task_Module_startup__E                           
1002d1a1  ti_sysbios_family_arm_m3_Hwi_create                             
1002d1fd  ti_sysbios_hal_Hwi_create                                       
1002d259  ti_sysbios_heaps_HeapMem_alloc__E                               
1002d2b5  ti_sysbios_knl_Mailbox_Instance_finalize__E                     
1002d311  ti_sysbios_knl_Mailbox_create                                   
1002d36d  ti_sysbios_knl_Swi_Instance_init__E                             
1002d3c9  ti_sysbios_family_arm_m3_Hwi_Module_startup__E                  
1002d421  ti_sysbios_family_arm_m3_Hwi_construct                          
1002d479  ti_sysbios_heaps_HeapMem_freeUnprotected__E                     
1002d4d1  ti_sysbios_knl_Mailbox_construct                                
1002d529  ti_sysbios_knl_Task_create                                      
1002d581  ti_sysbios_knl_Mailbox_pend__E                                  
1002d5d7  ti_sysbios_gates_GateHwi_Instance_init__E                       
1002d5d9  ti_sysbios_knl_Task_construct                                   
1002d62d  ti_sysbios_family_arm_m3_Hwi_excReserved__I                     
1002d67d  ti_sysbios_knl_Task_allBlockedFunction__I                       
1002d6cd  ti_sysbios_heaps_HeapMem_getStats__E                            
1002d719  ti_sysbios_knl_Swi_construct                                    
1002d765  ti_sysbios_knl_Swi_create                                       
1002d7b1  ti_sysbios_knl_Task_blockI__E                                   
1002d7fd  ti_sysbios_knl_Task_yield__E                                    
1002d849  ti_sysbios_heaps_HeapMem_Instance_init__E                       
1002d891  ti_sysbios_knl_Swi_post__E                                      
1002d8d9  ti_sysbios_family_arm_m3_Hwi_disableInterrupt__E                
1002d8d9  ti_sysbios_hal_Hwi_HwiProxy_disableInterrupt__E                 
1002d8d9  ti_sysbios_hal_Hwi_HwiProxy_disableInterrupt__E                 
1002d8d9  ti_sysbios_hal_Hwi_disableInterrupt__E                          
1002d8d9  ti_sysbios_hal_Hwi_disableInterrupt__E                          
1002d91d  ti_sysbios_family_arm_m3_Hwi_enableInterrupt__E                 
1002d91d  ti_sysbios_hal_Hwi_HwiProxy_enableInterrupt__E                  
1002d91d  ti_sysbios_hal_Hwi_HwiProxy_enableInterrupt__E                  
1002d91d  ti_sysbios_hal_Hwi_enableInterrupt__E                           
1002d91d  ti_sysbios_hal_Hwi_enableInterrupt__E                           
1002d961  ti_sysbios_family_arm_m3_Hwi_excNoIsr__I                        
1002d9a5  ti_sysbios_family_arm_m3_Hwi_excSvCall__I                       
1002d9e9  ti_sysbios_family_arm_m3_Hwi_getStackInfo__E                    
1002d9e9  ti_sysbios_hal_Hwi_HwiProxy_getStackInfo__E                     
1002d9e9  ti_sysbios_hal_Hwi_HwiProxy_getStackInfo__E                     
1002d9e9  ti_sysbios_hal_Hwi_getStackInfo__E                              
1002d9e9  ti_sysbios_hal_Hwi_getStackInfo__E                              
1002da2d  ti_sysbios_knl_Mailbox_Module_startup__E                        
1002da71  ti_sysbios_family_arm_m3_Hwi_excNmi__I                          
1002daad  ti_sysbios_family_arm_m3_Hwi_getHandle__E                       
1002dae9  ti_sysbios_family_arm_m3_TaskSupport_start__E                   
1002dae9  ti_sysbios_knl_Task_SupportProxy_start__E                       
1002dae9  ti_sysbios_knl_Task_SupportProxy_start__E                       
1002db25  ti_sysbios_knl_Clock_create                                     
1002db61  SwiP_restore                                                    
1002db61  ti_sysbios_knl_Swi_restore__E                                   
1002db9d  ti_sysbios_knl_Task_exit__E                                     
1002dbd7  ti_sysbios_knl_Clock_logTick__E                                 
1002dbd9  ti_sysbios_heaps_HeapMem_free__E                                
1002dc11  ClockP_getSystemTicks                                           
1002dc11  ti_sysbios_knl_Clock_getTicks__E                                
1002dc49  ti_sysbios_knl_Semaphore_create                                 
1002dc81  ti_sysbios_knl_Task_processVitalTaskFlag__I                     
1002dcb9  ti_sysbios_knl_Task_unblockI__E                                 
1002dcf1  ti_sysbios_family_arm_cc26xx_Timer_startup__E                   
1002dcf1  ti_sysbios_knl_Clock_TimerProxy_startup__E                      
1002dcf1  ti_sysbios_knl_Clock_TimerProxy_startup__E                      
1002dd25  ti_sysbios_heaps_HeapMem_init__I                                
1002dd59  ti_sysbios_knl_Clock_Instance_init__E                           
1002dd8d  ti_sysbios_knl_Clock_construct                                  
1002ddc1  ti_sysbios_knl_Semaphore_construct                              
1002ddf5  ti_sysbios_family_arm_m3_Hwi_excHandler__I                      
1002de25  ti_sysbios_gates_GateMutex_Object__create__S                    
1002de55  ti_sysbios_gates_GateMutex_create                               
1002de85  ti_sysbios_heaps_HeapMem_Object__create__S                      
1002deb5  ti_sysbios_knl_Event_create                                     
1002dee5  ti_sysbios_knl_Queue_construct                                  
1002df15  ti_sysbios_knl_Queue_create                                     
1002df45  ti_sysbios_knl_Task_restore__E                                  
1002df75  ti_sysbios_hal_Hwi_initStack                                    
1002dfa3  ti_sysbios_knl_Clock_triggerFunc__I                             
1002dfa5  ti_sysbios_family_arm_cc26xx_Timer_Module_startup__E            
1002dfd1  ti_sysbios_family_arm_cc26xx_Timer_postInit__I                  
1002dffd  ti_sysbios_family_arm_cc26xx_TimestampProvider_get64__E         
1002dffd  xdc_runtime_Timestamp_SupportProxy_get64__E                     
1002dffd  xdc_runtime_Timestamp_SupportProxy_get64__E                     
1002dffd  xdc_runtime_Timestamp_get64__E                                  
1002dffd  xdc_runtime_Timestamp_get64__E                                  
1002e029  ti_sysbios_gates_GateHwi_Object__create__S                      
1002e055  ti_sysbios_gates_GateMutex_construct                            
1002e081  ti_sysbios_heaps_HeapTrack_Object__create__S                    
1002e0ad  ti_sysbios_heaps_HeapTrack_create                               
1002e0d9  ti_sysbios_knl_Event_construct                                  
1002e105  ti_sysbios_knl_Event_pendTimeout__I                             
1002e131  ti_sysbios_knl_Semaphore_pendTimeout__I                         
1002e15d  ti_sysbios_family_arm_cc26xx_Timer_Module__startupDone__S       
1002e15d  ti_sysbios_knl_Clock_TimerProxy_Module__startupDone__S          
1002e185  ti_sysbios_family_arm_m3_Hwi_Module__startupDone__S             
1002e185  ti_sysbios_hal_Hwi_HwiProxy_Module__startupDone__S              
1002e1ad  ti_sysbios_family_arm_m3_Hwi_Object__delete__S                  
1002e1d5  ti_sysbios_family_arm_m3_Hwi_Object__get__S                     
1002e1fd  ti_sysbios_gates_GateMutex_Object__delete__S                    
1002e225  ti_sysbios_gates_GateMutex_enter__E                             
1002e24d  ti_sysbios_hal_Hwi_Object__delete__S                            
1002e275  ti_sysbios_heaps_HeapMem_Object__get__S                         
1002e29d  ti_sysbios_knl_Clock_Object__delete__S                          
1002e2c5  ti_sysbios_knl_Clock_stop__E                                    
1002e2ed  ti_sysbios_knl_Idle_run__E                                      
1002e315  ti_sysbios_knl_Mailbox_Object__delete__S                        
1002e33d  ti_sysbios_knl_Mailbox_Object__get__S                           
1002e365  ti_sysbios_knl_Semaphore_Object__delete__S                      
1002e38d  ti_sysbios_knl_Swi_Object__get__S                               
1002e3b5  ti_sysbios_knl_Task_Object__delete__S                           
1002e3dd  ti_sysbios_knl_Task_restoreHwi__E                               
1002e405  ti_sysbios_knl_Mailbox_postInit__I                              
1002e42b  ti_sysbios_knl_Swi_Instance_finalize__E                         
1002e42d  ti_sysbios_family_arm_cc26xx_TimestampProvider_Module_startup__E
1002e451  ti_sysbios_family_arm_m3_Hwi_Handle__label__S                   
1002e451  ti_sysbios_hal_Hwi_HwiProxy_Handle__label__S                    
1002e475  ti_sysbios_family_arm_m3_Hwi_destruct                           
1002e499  ti_sysbios_gates_GateHwi_Handle__label__S                       
1002e499  xdc_runtime_Main_Module_GateProxy_Handle__label__S              
1002e499  xdc_runtime_System_Module_GateProxy_Handle__label__S            
1002e4bd  ti_sysbios_gates_GateHwi_Object__delete__S                      
1002e4e1  ti_sysbios_BIOS_RtsGateProxy_Handle__label__S                   
1002e4e1  ti_sysbios_gates_GateMutex_Handle__label__S                     
1002e4e1  ti_sysbios_heaps_HeapMem_Module_GateProxy_Handle__label__S      
1002e505  ti_sysbios_gates_GateMutex_destruct                             
1002e529  ti_sysbios_heaps_HeapMem_Handle__label__S                       
1002e529  xdc_runtime_Memory_HeapProxy_Handle__label__S                   
1002e54d  ti_sysbios_heaps_HeapMem_Object__delete__S                      
1002e571  ti_sysbios_heaps_HeapTrack_Handle__label__S                     
1002e595  ti_sysbios_heaps_HeapTrack_Instance_init__E                     
1002e5b9  ti_sysbios_heaps_HeapTrack_Object__delete__S                    
1002e5dd  ti_sysbios_heaps_HeapTrack_getStats__E                          
1002e601  ti_sysbios_knl_Clock_Module_startup__E                          
1002e625  ti_sysbios_knl_Clock_addI__E                                    
1002e649  ti_sysbios_knl_Clock_destruct                                   
1002e66d  ti_sysbios_knl_Event_Object__delete__S                          
1002e691  ti_sysbios_knl_Mailbox_destruct                                 
1002e6b5  ti_sysbios_knl_Queue_Object__delete__S                          
1002e6d9  ti_sysbios_knl_Semaphore_Instance_finalize__E                   
1002e6fd  ti_sysbios_knl_Semaphore_destruct                               
1002e721  ti_sysbios_knl_Swi_Handle__label__S                             
1002e745  ti_sysbios_knl_Swi_Module_startup__E                            
1002e769  ti_sysbios_knl_Swi_Object__delete__S                            
1002e78d  ti_sysbios_knl_Task_Handle__label__S                            
1002e7b1  ti_sysbios_knl_Task_Object__get__S                              
1002e7d5  ti_sysbios_knl_Task_destruct                                    
1002e7f9  ti_sysbios_knl_Task_enter__I                                    
1002e81d  ti_sysbios_knl_Clock_scheduleNextTick__E                        
1002e83d  ti_sysbios_knl_Event_checkEvents__I                             
1002e85d  ti_sysbios_knl_Event_destruct                                   
1002e87d  ti_sysbios_knl_Queue_Object__get__S                             
1002e89d  ti_sysbios_knl_Queue_destruct                                   
1002e8bd  ti_sysbios_knl_Swi_destruct                                     
1002e8dd  ti_sysbios_hal_Hwi_Instance_init__E                             
1002e8fd  ti_sysbios_family_arm_m3_Hwi_plug__E                            
1002e919  ti_sysbios_family_arm_m3_Hwi_setPriority__E                     
1002e935  ti_sysbios_family_arm_m3_Hwi_switchFromBootStack__E             
1002e935  ti_sysbios_hal_Hwi_HwiProxy_switchFromBootStack__E              
1002e935  ti_sysbios_hal_Hwi_HwiProxy_switchFromBootStack__E              
1002e935  ti_sysbios_hal_Hwi_switchFromBootStack__E                       
1002e935  ti_sysbios_hal_Hwi_switchFromBootStack__E                       
1002e951  ti_sysbios_knl_Queue_get__E                                     
1002e96d  ti_sysbios_knl_Queue_put__E                                     
1002e989  ti_sysbios_knl_Task_sleepTimeout__I                             
1002e9a3  ti_sysbios_knl_Task_unblock__E                                  
1002e9bb  ti_sysbios_gates_GateMutex_Instance_init__E                     
1002e9d1  ti_sysbios_knl_Clock_Instance_finalize__E                       
1002e9e7  ti_sysbios_knl_Clock_start__E                                   
1002e9fd  ti_sysbios_BIOS_getCpuFreq__E                                   
1002ea11  ti_sysbios_BIOS_setThreadType__E                                
1002ea25  ti_sysbios_knl_Swi_disable__E                                   
1002ea39  ti_sysbios_knl_Swi_enabled__E                                   
1002ea4d  ti_sysbios_knl_Task_disable__E                                  
1002ea61  ti_sysbios_hal_Hwi_Module_startup__E                            
1002ea73  ti_sysbios_knl_Event_sync__E                                    
1002ea85  ti_sysbios_BIOS_exit__E                                         
1002ea95  ti_sysbios_BIOS_getThreadType__E                                
1002eaa5  ti_sysbios_BIOS_start__E                                        
1002eab5  ti_sysbios_family_arm_m3_TaskSupport_getStackAlignment__E       
1002eab5  ti_sysbios_knl_Task_SupportProxy_getStackAlignment__E           
1002eab5  ti_sysbios_knl_Task_SupportProxy_getStackAlignment__E           
1002eac5  ti_sysbios_knl_Clock_TimerProxy_getCurrentTick__E               
1002ead5  ti_sysbios_knl_Clock_TimerProxy_getMaxTicks__E                  
1002eae5  ti_sysbios_knl_Clock_TimerProxy_setNextTick__E                  
1002eaf5  ti_sysbios_knl_Task_self__E                                     
1002eb05  ti_sysbios_gates_GateMutex_leave__E                             
1002eb13  ti_sysbios_heaps_HeapMem_restore__E                             
1002eb21  ti_sysbios_knl_Queue_empty__E                                   
1002eb2f  ti_sysbios_knl_Queue_remove__E                                  
1002eb3d  ti_sysbios_family_arm_cc26xx_TimestampProvider_getFreq__E       
1002eb3d  xdc_runtime_Timestamp_SupportProxy_getFreq__E                   
1002eb3d  xdc_runtime_Timestamp_SupportProxy_getFreq__E                   
1002eb3d  xdc_runtime_Timestamp_getFreq__E                                
1002eb3d  xdc_runtime_Timestamp_getFreq__E                                
1002eb49  ti_sysbios_family_arm_m3_Hwi_Params__init__S                    
1002eb49  ti_sysbios_hal_Hwi_HwiProxy_Params__init__S                     
1002eb55  ti_sysbios_family_arm_m3_Hwi_disableFxn__E                      
1002eb61  ti_sysbios_family_arm_m3_Hwi_enableFxn__E                       
1002eb6d  ti_sysbios_gates_GateHwi_enter__E                               
1002eb79  ti_sysbios_BIOS_RtsGateProxy_Params__init__S                    
1002eb79  ti_sysbios_gates_GateMutex_Params__init__S                      
1002eb79  ti_sysbios_heaps_HeapMem_Module_GateProxy_Params__init__S       
1002eb85  ti_sysbios_heaps_HeapTrack_Params__init__S                      
1002eb91  ti_sysbios_heaps_HeapTrack_isBlocking__E                        
1002eb9d  ti_sysbios_knl_Clock_Params__init__S                            
1002eba9  ti_sysbios_knl_Clock_getTimerHandle__E                          
1002ebb5  ti_sysbios_knl_Event_Params__init__S                            
1002ebc1  ti_sysbios_knl_Mailbox_Params__init__S                          
1002ebcd  ti_sysbios_knl_Queue_dequeue__E                                 
1002ebd9  ti_sysbios_knl_Queue_enqueue__E                                 
1002ebe5  ti_sysbios_knl_Semaphore_Params__init__S                        
1002ebf1  ti_sysbios_knl_Swi_Params__init__S                              
1002ebfd  ti_sysbios_knl_Swi_self__E                                      
1002ec09  ti_sysbios_knl_Task_Params__init__S                             
1002ec15  ti_sysbios_hal_Hwi_Instance_finalize__E                         
1002ec1f  ti_sysbios_knl_Event_Instance_init__E                           
1002ec29  ti_sysbios_family_arm_m3_Hwi_doSwiRestore__I                    
1002ec31  ti_sysbios_family_arm_m3_Hwi_startup__E                         
1002ec31  ti_sysbios_hal_Hwi_HwiProxy_startup__E                          
1002ec31  ti_sysbios_hal_Hwi_HwiProxy_startup__E                          
1002ec31  ti_sysbios_hal_Hwi_startup__E                                   
1002ec31  ti_sysbios_hal_Hwi_startup__E                                   
1002ec39  ti_sysbios_knl_Idle_loop__E                                     
1002ec41  ti_sysbios_family_arm_m3_Hwi_doTaskRestore__I                   
1002ec47  HwiP_restore                                                    
1002ec47  ti_sysbios_family_arm_m3_Hwi_restoreFxn__E                      
1002ec4d  ti_sysbios_gates_GateHwi_leave__E                               
1002ec53  ti_sysbios_gates_GateMutex_Instance_finalize__E                 
1002ec59  ti_sysbios_heaps_HeapMem_isBlocking__E                          
1002ec5f  ti_sysbios_knl_Queue_Instance_init__E                           
1002ec65  ti_sysbios_knl_Queue_elemClear__E                               
1002ec6b  ti_sysbios_knl_Swi_startup__E                                   
1002ec71  ti_sysbios_knl_Task_enable__E                                   
1002ec77  ti_sysbios_BIOS_RtsGateProxy_enter__E                           
1002ec7b  ti_sysbios_BIOS_RtsGateProxy_leave__E                           
1002ec7f  ti_sysbios_family_arm_cc26xx_Timer_getExpiredTicks__E           
1002ec83  ti_sysbios_family_arm_cc26xx_Timer_getPeriod__E                 
1002ec87  ti_sysbios_family_arm_cc26xx_Timer_setPeriod__E                 
1002ec8b  ti_sysbios_family_arm_m3_Hwi_delete                             
1002ec8f  ti_sysbios_family_arm_m3_TaskSupport_Module__startupDone__S     
1002ec8f  ti_sysbios_knl_Task_SupportProxy_Module__startupDone__S         
1002ec93  ti_sysbios_gates_GateHwi_query__E                               
1002ec93  xdc_runtime_Main_Module_GateProxy_query__E                      
1002ec93  xdc_runtime_System_Module_GateProxy_query__E                    
1002ec93  xdc_runtime_System_Module_GateProxy_query__E                    
1002ec97  ti_sysbios_gates_GateMutex_delete                               
1002ec9b  ti_sysbios_BIOS_RtsGateProxy_query__E                           
1002ec9b  ti_sysbios_BIOS_RtsGateProxy_query__E                           
1002ec9b  ti_sysbios_gates_GateMutex_query__E                             
1002ec9b  ti_sysbios_heaps_HeapMem_Module_GateProxy_query__E              
1002ec9b  ti_sysbios_heaps_HeapMem_Module_GateProxy_query__E              
1002ec9f  ti_sysbios_hal_Hwi_HwiProxy_create                              
1002eca3  ti_sysbios_hal_Hwi_HwiProxy_delete                              
1002eca7  ti_sysbios_hal_Hwi_delete                                       
1002ecab  ti_sysbios_heaps_HeapMem_Module_GateProxy_enter__E              
1002ecaf  ti_sysbios_heaps_HeapMem_Module_GateProxy_leave__E              
1002ecb3  ti_sysbios_knl_Clock_TimerProxy_getExpiredTicks__E              
1002ecb7  ti_sysbios_knl_Clock_TimerProxy_getPeriod__E                    
1002ecbb  ti_sysbios_knl_Clock_delete                                     
1002ecbf  ti_sysbios_knl_Clock_removeI__E                                 
1002ecc3  ti_sysbios_knl_Clock_setTimeout__E                              
1002ecc7  ti_sysbios_knl_Event_delete                                     
1002eccb  ti_sysbios_knl_Mailbox_delete                                   
1002eccf  ti_sysbios_knl_Queue_delete                                     
1002ecd3  ti_sysbios_knl_Queue_head__E                                    
1002ecd7  ti_sysbios_knl_Queue_next__E                                    
1002ecdb  ti_sysbios_knl_Semaphore_delete                                 
1002ecdf  ti_sysbios_knl_Swi_delete                                       
1002ece3  ti_sysbios_knl_Swi_postInit__I                                  
1002ece7  ti_sysbios_knl_Task_delete                                      
1002eceb  ti_sysbios_knl_Task_startup__E                                  
1002ecf1  xdc_runtime_System_doPrint__I                                   
1002f055  xdc_runtime_Startup_startMods__I                                
1002f15d  xdc_runtime_Text_putSite__E                                     
1002f1f7  xdc_runtime_Error_policySpin__E                                 
1002f1f9  xdc_runtime_Text_putMod__E                                      
1002f289  xdc_runtime_Memory_alloc__E                                     
1002f2f9  xdc_runtime_Core_createObject__I                                
1002f367  xdc_runtime_Core_deleteObject__I                                
1002f3c5  xdc_runtime_Text_putLab__E                                      
1002f421  xdc_runtime_Assert_raise__I                                     
1002f475  xdc_runtime_Startup_exec__E                                     
1002f4c9  xdc_runtime_Core_assignParams__I                                
1002f511  xdc_runtime_Core_constructObject__I                             
1002f559  xdc_runtime_System_atexit__E                                    
1002f5a1  xdc_runtime_Text_xprintf__I                                     
1002f5e5  xdc_runtime_System_processAtExit__E                             
1002f625  xdc_runtime_System_putchar__I                                   
1002f659  xdc_runtime_Core_assignLabel__I                                 
1002f689  xdc_runtime_Text_printVisFxn__I                                 
1002f6b9  xdc_runtime_System_vprintf__E                                   
1002f6e5  xdc_runtime_Text_cordText__E                                    
1002f711  xdc_runtime_System_abort__E                                     
1002f739  xdc_runtime_Error_raiseX__E                                     
1002f759  xdc_runtime_Registry_findById__E                                
1002f779  xdc_runtime_Error_check__E                                      
1002f795  xdc_runtime_Memory_valloc__E                                    
1002f7b1  xdc_runtime_System_exit__E                                      
1002f7cd  xdc_runtime_Text_ropeText__E                                    
1002f7e9  xdc_runtime_System_printf__E                                    
1002f803  xdc_runtime_Core_destructObject__I                              
1002f81b  xdc_runtime_System_abortSpin__E                                 
1002f81d  xdc_runtime_Memory_free__E                                      
1002f831  xdc_runtime_Memory_getStats__E                                  
1002f845  xdc_runtime_SysCallback_abort__E                                
1002f845  xdc_runtime_System_SupportProxy_abort__E                        
1002f859  xdc_runtime_SysCallback_exit__E                                 
1002f859  xdc_runtime_System_SupportProxy_exit__E                         
1002f86d  xdc_runtime_SysCallback_flush__E                                
1002f86d  xdc_runtime_System_SupportProxy_flush__E                        
1002f86d  xdc_runtime_System_flush__E                                     
1002f881  xdc_runtime_SysCallback_putch__E                                
1002f881  xdc_runtime_System_SupportProxy_putch__E                        
1002f895  xdc_runtime_SysCallback_ready__E                                
1002f895  xdc_runtime_System_SupportProxy_ready__E                        
1002f8a9  xdc_runtime_Memory_getMaxDefaultTypeAlign__E                    
1002f8b9  xdc_runtime_System_vsnprintf__E                                 
1002f8c9  xdc_runtime_Timestamp_SupportProxy_get32__E                     
1002f8c9  xdc_runtime_Timestamp_SupportProxy_get32__E                     
1002f8c9  xdc_runtime_Timestamp_get32__E                                  
1002f8c9  xdc_runtime_Timestamp_get32__E                                  
1002f8d9  xdc_runtime_Memory_calloc__E                                    
1002f8e5  xdc_runtime_Startup_rtsDone__E                                  
1002f8f1  xdc_runtime_Memory_HeapProxy_alloc__E                           
1002f8fb  xdc_runtime_Memory_HeapProxy_free__E                            
1002f905  xdc_runtime_Memory_HeapProxy_getStats__E                        
1002f90f  xdc_runtime_Gate_leaveSystem__E                                 
1002f915  xdc_runtime_System_Module_startup__E                            
1002f91b  xdc_runtime_Gate_enterSystem__E                                 
1002f91f  xdc_runtime_SysCallback_Module__startupDone__S                  
1002f91f  xdc_runtime_System_SupportProxy_Module__startupDone__S          
1002f923  xdc_runtime_System_Module_GateProxy_enter__E                    
1002f927  xdc_runtime_System_Module_GateProxy_leave__E                    
1002f92b  xdc_runtime_System_printf_va__F                                 
1002f92f  xdc_runtime_System_exitSpin__E                                  
1002f931  ti_sysbios_family_arm_m3_Hwi_dispatch__I                        
1002fa11  ti_sysbios_family_arm_m3_Hwi_interruptsAreDisabledButShouldNotBe
1002fa2d  ti_sysbios_family_arm_m3_TaskSupport_buildTaskStack             
1002fab9  ti_sysbios_family_arm_m3_Hwi_initStacks__E                      
1002fb11  ti_sysbios_family_arm_m3_Hwi_pendSV__I                          
1002fb35  ti_sysbios_family_arm_m3_Hwi_return                             
1002fb39  ti_sysbios_family_arm_m3_Hwi_excHandlerAsm__I                   
1002fb59  ti_sysbios_family_xxx_Hwi_switchAndRunFunc                      
1002fb77  ti_sysbios_family_arm_m3_TaskSupport_swap__E                    
1002fb77  ti_sysbios_knl_Task_SupportProxy_swap__E                        
1002fb77  ti_sysbios_knl_Task_SupportProxy_swap__E                        
1002fb83  ti_sysbios_knl_Task_swapReturn                                  
1002fb8f  ti_sysbios_family_arm_m3_TaskSupport_glue                       
1002fba0  ti_sysbios_knl_Task_Object__PARAMS__C                           
1002fbdc  ti_sysbios_knl_Mailbox_Object__PARAMS__C                        
1002fc10  ti_sysbios_family_arm_m3_Hwi_Object__PARAMS__C                  
1002fc40  ti_sysbios_hal_Hwi_Object__PARAMS__C                            
1002fc6c  ti_sysbios_knl_Swi_Object__PARAMS__C                            
1002fc94  ti_sysbios_heaps_HeapMem_Object__PARAMS__C                      
1002fcb8  ti_sysbios_knl_Clock_Object__PARAMS__C                          
1002fcdc  ti_sysbios_knl_Semaphore_Object__PARAMS__C                      
1002fd00  ti_sysbios_gates_GateHwi_Object__PARAMS__C                      
1002fd18  ti_sysbios_gates_GateMutex_Object__PARAMS__C                    
1002fd30  ti_sysbios_knl_Event_Object__PARAMS__C                          
1002fd48  ti_sysbios_knl_Queue_Object__PARAMS__C                          
1002fd80  ti_sysbios_heaps_HeapTrack_Object__PARAMS__C                    
1002fd9c  ti_sysbios_heaps_HeapTrack_Instance_State_trackQueue__O         
1002fda0  ti_sysbios_heaps_HeapTrack_Module__diagsEnabled__C              
1002fda4  ti_sysbios_heaps_HeapTrack_Module__diagsIncluded__C             
1002fda8  ti_sysbios_heaps_HeapTrack_Module__diagsMask__C                 
1002fddb  strlen                                                          
10030101  FHAPI_start                                                     
1003035d  FHAPI_completeTxCb                                              
10030501  FHAPI_completeRxCb                                              
10030689  FHAPI_sendData                                                  
10030809  FHAPI_reset                                                     
100308d1  FHAPI_getTxParams_old                                           
10030989  FHAPI_startBS                                                   
10030a21  FHAPI_getTxParams                                               
10030a81  FHAPI_getRemDT                                                  
10030ad1  FHAPI_SFDRxCb                                                   
10030b11  FHAPI_stopAsync                                                 
10030b51  FHAPI_setStateCb                                                
10030b81  FHAPI_getTxChHoppingFunc                                        
10030bad  FHAPI_getBitCount                                               
10030bd1  FHDATA_procASYNCReq                                             
10030cb5  FHDATA_CheckMinTxOffTime                                        
10030d61  FHDATA_getPktFromQueue                                          
10030e05  FHDATA_purgeUnSupportedFrameTypes                               
10030e89  FHDATA_purgePktFromQueue                                        
10030efd  FHDATA_requeuePkt                                               
10030f65  FHDATA_getASYNCDelay                                            
10030fb5  FHDATA_chkASYNCStartReq                                         
10030fed  FHDATA_updateCCA                                                
10031011  FHDATA_asyncMinTxOffTimerCb                                     
10031029  FHDATA_checkPktFromQueue                                        
1003103d  FHDATA_procEDFEReq                                              
10031051  FHDATA_startEDFEReq                                             
10031065  FHDATA_startEDFETimer                                           
10031069  FHDH1CF_hashword                                                
10031129  FHDH1CF_getBCChannelNum                                         
100311ad  FHDH1CF_mapChIdxChannel                                         
10031209  FHDH1CF_getCh                                                   
1003125d  FHDH1CF_getChannelNum                                           
100312b1  FHDH1CF_getTxChannelNum                                         
100312f5  FHDH1CF_getBcCh                                                 
10031325  FHIE_genPieContent                                              
10031699  FHIE_parsePie                                                   
1003197d  FHIE_extractPie                                                 
10031ba9  FHIE_parseCommonInformation                                     
10031d91  FHIE_genHie                                                     
10031ec9  FHIE_parseHie                                                   
10031fed  FHIE_genCommonInformation                                       
1003210d  FHIE_genPie                                                     
1003220d  FHIE_getPieContentLen                                           
1003230d  FHIE_extractHie                                                 
100323cd  FHIE_genExcludedChannelRanges                                   
1003248d  FHIE_genBTIE                                                    
10032519  FHIE_getCcaSfdTime                                              
10032599  FHIE_getPieLen                                                  
10032619  FHIE_getHieLen                                                  
10032689  FHIE_genExcludedChannelMask                                     
100326f1  FHIE_getChannelPlan                                             
10032755  FHIE_genUTIE                                                    
100327b1  FHIE_getCommonInformationLen                                    
10032805  FHIE_isChannelPlanValid                                         
10032859  FHIE_getExcludedChannelControl                                  
10032895  FHIE_getSubPie                                                  
100328cf  FHIE_getPie                                                     
10032905  FHIE_gen                                                        
10032939  FHIE_getHie                                                     
1003296d  FHIE_getLen                                                     
1003299d  FHMGR_bcTimerIsrCb                                              
10032acd  FHMGR_updateRadioUCChannel                                      
10032b45  FHMGR_updateRadioBCChannel                                      
10032bb5  FHMGR_ucTimerIsrCb                                              
10032c1d  FHMGR_macStartFHTimer                                           
10032c75  FHMGR_updateHopping                                             
10032cc9  FHMGR_macStartOneShotTimer                                      
10032cf5  FHMGR_BCTimerEventUpd                                           
10032d11  FHMGR_macCancelFHTimer                                          
10032d29  FHMGR_macGetElapsedFHTime                                       
10032d41  FHMGR_pendBcChUpdate                                            
10032d47  FHMGR_pendUcChUpdate                                            
10032d4d  FHNT_purgeEntry                                                 
10032ea1  FHNT_getRemoveEntryFromTemp                                     
10032fe1  FHNT_getEntry                                                   
10033119  FHNT_AddDeviceCB                                                
10033209  FHNT_createEntry                                                
100332c5  FHNT_createFixedEntry                                           
10033381  FHNT_addTempEUI                                                 
10033429  FHNT_initTempTable                                              
100334c5  FHNT_getRemoveEntry                                             
1003355d  FHNT_getRemoveFixedEntry                                        
100335f5  FHNT_getFixedEntry                                              
10033671  FHNT_getNTIndexFromTempIndex                                    
100336e5  FHNT_getOptEntry                                                
1003374d  FHNT_addOptEntry                                                
100337b1  FHNT_DelDeviceCB                                                
10033811  FHNT_reset                                                      
1003386d  FHNT_delTempIndex                                               
100338c1  FHNT_getFixedNTIndexFromTempIndex                               
10033915  FHNT_putEntry                                                   
10033969  FHNT_getAvailEntry                                              
100339b1  FHNT_putFixedEntry                                              
100339f9  FHNT_getEUI                                                     
10033a3d  FHNT_purgeTimerIsrCb                                            
10033a75  FHNT_init                                                       
10033aa9  FHNT_assessTime                                                 
10033ac9  FHPIB_set                                                       
10033ca5  FHPIB_get                                                       
10033cf5  FHPIB_getLen                                                    
10033d25  FHPIB_getIndex                                                  
10033d41  FHPIB_reset                                                     
10033d59  FHSM_event                                                      
10033d9d  FSM_transaction_debug                                           
10033dcd  FHUTIL_adjBackOffDur                                            
10033f09  FHUTIL_getBcTxParams                                            
10033fc9  FHUTIl_updateBTIE                                               
1003404d  FHUTIL_getTxChannel                                             
100340cd  FHUTIL_getCurBfio                                               
10034149  FHUTIL_getGuardTime                                             
100341c1  FHUTIL_getBitCounts                                             
10034219  FHUTIL_getChannelSpacing                                        
10034261  FHUTIL_getCurUfsi                                               
100342a9  FHUTIL_getCh0                                                   
100342e1  FHUTIL_getMaxChannels                                           
10034319  FHUTIL_getTxUfsi                                                
10034349  FHUTIL_updateBcNumChannels                                      
10034375  FHUTIL_updateUcNumChannels                                      
100343a1  FHUTIL_getUcChannel                                             
100343c9  FHUTIL_getElapsedTime                                           
100343e5  FHUTIL_compBfioTxTime                                           
100343fd  FHUTIL_assert                                                   
10034411  FHUTIL_calcUfsi                                                 
1003441b  FHUTIL_elapsedTime                                              
1003441f  FHUTIL_noAction                                                 
10034421  macTxBeaconCompleteCallback                                     
10034545  macBeaconStartContinue                                          
100346a1  macBeaconPrepareCallback                                        
10034715  macBeaconCheckStartTime                                         
10034781  macBeaconTxCallback                                             
100347ed  macBeaconSetupBroadcast                                         
10034849  MAC_InitBeaconCoord                                             
10034895  macStartBeaconPrepareCallback                                   
100348e1  macBeaconSchedRequested                                         
10034921  macBeaconClearIndirect                                          
1003495d  macBeaconPeriodCallback                                         
10034999  macOutgoingNonSlottedTx                                         
100349d5  macBeaconSetPrepareTime                                         
10034a01  macBeaconCoordReset                                             
10034a25  macBeaconBattLifeCallback                                       
10034bcd  macApiSyncReq                                                   
10034e8d  macSyncTimeoutCallback                                          
10035065  macBeaconSyncLoss                                               
100350ed  macCheckPendAddr                                                
10035159  MAC_InitBeaconDevice                                            
10035229  macBeaconStartFrameResponseTimer                                
10035289  macBeaconStopTrack                                              
100352cd  macIncomingNonSlottedTx                                         
10035311  macStartBroadcastPendTimer                                      
10035355  macBroadcastPendCallback                                        
10035369  macBeaconSetSched                                               
10035421  macBeaconSetupCap                                               
10035535  macBeaconRequeue                                                
10035575  macBeaconInit                                                   
100355a9  macBeaconReset                                                  
100355dd  macBeaconCheckSched                                             
1003560d  macBuildAssociateRsp                                            
1003576d  macBuildBeacon                                                  
100358c5  macIndirectExpire                                               
100359d5  macStartSetParams                                               
10035ad5  macStartBegin                                                   
10035bb5  macBuildPendAddr                                                
10035c85  macCoordReset                                                   
10035d4d  macBuildRealign                                                 
10035e09  macIndirectSend                                                 
10035eb1  macApiPurgeReq                                                  
10035f55  macRxDataReq                                                    
10036085  macIndirectTxFrame                                              
100360fd  macApiOrphanRsp                                                 
10036171  macIndirectRequeueFrame                                         
100361e5  macIndirectMark                                                 
1003624d  MAC_InitCoord                                                   
100362b1  macRxAssociateReq                                               
10036309  macStartContinue                                                
10036355  macRxOrphan                                                     
10036399  macApiAssociateRsp                                              
100363d9  macStartComplete                                                
10036419  macRxBeaconReq                                                  
10036455  MAC_McpsPurgeReq                                                
10036471  MAC_MlmeAssociateRsp                                            
1003648d  MAC_MlmeOrphanRsp                                               
100364a9  macPendAddrLen                                                  
100364c5  macRxPanConflict                                                
100364e1  MAC_MlmeStartReq                                                
100364f9  macTxCompleteCallback                                           
10036729  MAC_McpsDataReq                                                 
100368cd  macDataTxSend                                                   
10036ba1  macAllocTxBuffer                                                
10036cd9  macRxCompleteCallback                                           
10036e05  MAC_McpsDataAlloc                                               
10036ef5  macApiDataReq                                                   
10036fc5  macAutoPendMaintainSrcMatchTable                                
10037079  macDataTxComplete                                               
1003712d  macDataTxEnqueue                                                
100371e1  macAutoPendAddSrcMatchTableEntry                                
10037279  macDataReset                                                    
100372f5  macFrameDurationSubG                                            
10037361  macCheckIndPacket                                               
100373b9  macDataRxInd                                                    
100373fd  macRxCheckMACPendingCallback                                    
1003742d  macRxCheckPendingCallback                                       
10037455  macDataRxMemAlloc                                               
10037479  macFrameDuration                                                
1003749d  macFrameDurationIeee                                            
100374c1  macDataSend                                                     
100374e1  macCheckSched                                                   
100374fd  macDataTxTimeAvailable                                          
10037515  macDataRxMemFree                                                
10037529  macDataTxDelayCallback                                          
1003753d  macSetSched                                                     
10037549  macBuildAssociateReq                                            
10037699  macApiAssociateReq                                              
100377a1  macDeviceReset                                                  
10037871  macRxAssocRsp                                                   
1003792d  macAssocDataRxInd                                               
100379b1  macPollDataRxInd                                                
10037a35  macRxCoordRealign                                               
10037ab9  macApiPollReq                                                   
10037b25  macAssocDataReqComplete                                         
10037b91  macPollDataReqComplete                                          
10037bed  macPollFrameResponseTimeout                                     
10037c45  MAC_InitDevice                                                  
10037c99  macAssocDataReq                                                 
10037ced  macAssocFailed                                                  
10037d35  macStartFrameResponseTimer                                      
10037d79  macAssociateCnf                                                 
10037db5  macAssocFrameResponseTimeout                                    
10037de9  macPollRxDisassoc                                               
10037e15  macStartResponseTimer                                           
10037e3d  macPollCnf                                                      
10037e61  macPollRxAssocRsp                                               
10037e85  macAssocRxDisassoc                                              
10037ea5  MAC_MlmeAssociateReq                                            
10037ebd  MAC_MlmePollReq                                                 
10037ed5  macPanConflictComplete                                          
10037ee9  macBuildPayloadIes                                              
100380d9  macBuildPayloadCoexistIe                                        
1003818d  macParseHeaderIes                                               
1003827d  macParsePayloadIes                                              
10038349  macUpdateHeaderIEPtr                                            
100383c5  macMlmeSubIePresent                                             
1003842b  macIeCoexistIePresent                                           
10038489  macUpdatePayloadIEPtr                                           
100384e5  macIeFreeList                                                   
10038501  macSendDataMsg                                                  
100385f1  macCbackForEvent                                                
100386a1  macSendMsg                                                      
1003871d  macExecute                                                      
10038791  macMainReset                                                    
100387f9  mac_msg_deallocate                                              
10038845  macSetEvent16                                                   
10038861  macSetEvent                                                     
1003887d  macStateIdleOrPolling                                           
10038899  macMainReserve                                                  
100388b1  macStateIdle                                                    
100388c9  macStateScanning                                                
100388e1  macMainSetTaskId                                                
100388f1  macBuildHeader                                                  
10038c1d  macBuildCommonReq                                               
10038e15  MAC_InitFH                                                      
10038f61  macBuildDisassociateReq                                         
10039095  macSetDefaultsByPhyID                                           
100391c9  MAC_MlmeResetReq                                                
100392e1  macBuildWSAsyncReq                                              
100393ed  macCommStatusInd                                                
100394f1  macBuildBeaconNotifyInd                                         
100395bd  macRxBeacon                                                     
100397c9  macDisassocComplete                                             
10039855  macBuildWSAsyncMsg                                              
100398d9  macRxDisassoc                                                   
10039955  macApiDisassociateReq                                           
100399cd  MAC_Init                                                        
10039a41  macCoordDestAddrCmp                                             
10039a99  macApiWSAsyncReq                                                
10039ae9  macDestAddrCmp                                                  
10039b35  macDestSAddrCmp                                                 
10039b81  macApiPending                                                   
10039bc1  macCoordAddrCmp                                                 
10039bfd  macSetDefaultsByRE                                              
10039c35  macGetCoordAddress                                              
10039c69  MAC_YieldReq                                                    
10039c95  macConflictSyncLossInd                                          
10039cbd  MAC_EnableFH                                                    
10039ce1  MAC_MlmeFHGetReq                                                
10039d01  MAC_MlmeFHGetReqSize                                            
10039d21  MAC_MlmeFHSetReq                                                
10039d41  MAC_StartFH                                                     
10039d61  macDefaultAction                                                
10039d81  macGetMyAddrMode                                                
10039da1  macWSAsyncCnf                                                   
10039dc1  MAC_MlmeDisassociateReq                                         
10039ddd  MAC_MlmeSyncReq                                                 
10039df5  MAC_MlmeWSAsyncReq                                              
10039e0d  macApiBadState                                                  
10039e25  macApiUnsupported                                               
10039e3d  macTxCsmaDelay                                                  
10039e55  MAC_RandomByte                                                  
10039e69  macBcTimerHandler                                               
10039e7d  macIsCsmOperational                                             
10039e91  macSecCpy                                                       
10039ea5  macUpdateCsmPhyParam                                            
10039eb9  macGetCSMPhy                                                    
10039ec1  macNoAction                                                     
10039ec5  MAC_MlmeSetReq                                                  
1003a115  macMRFSKGetPhyDesc                                              
1003a169  MAC_MlmeGetReq                                                  
1003a1b9  MAC_GetPHYParamReq                                              
1003a1f9  MAC_SetPHYParamReq                                              
1003a239  macPibReset                                                     
1003a275  MAC_MlmeGetReqSize                                              
1003a29d  macIEEEGetPhyDesc                                               
1003a2ad  macApiScanReq                                                   
1003a599  macScanRxBeacon                                                 
1003a689  MAC_MlmeScanReq                                                 
1003a839  macScanComplete                                                 
1003a8b9  macScanStartTimer                                               
1003a931  macScanCnfInit                                                  
1003a96d  macScanFailedInProgress                                         
1003a99d  MAC_MlmeSetSecurityReq                                          
1003ac6d  macSecurityPibReset                                             
1003af09  MAC_MlmeGetSecurityReq                                          
1003b101  MAC_MlmeGetSecurityReqSize                                      
1003b159  MAC_MlmeGetPointerSecurityReq                                   
1003b199  macSecurityPibIndex                                             
1003b9f1  macUpdatePanId                                                  
1003ba75  macGetEUIIndex                                                  
1003bb81  macGetEUI                                                       
1003c6e9  macWrapperGetDefaultSourceKey                                   
20000000  ti_sysbios_family_arm_m3_Hwi_ramVectors                         
20000100  xdcRomConstPtr                                                  
20000104  xdcRomExternFuncPtr                                             
20000108  xdcRomStatePtr                                                  
2000010c  RAM_MAC_BASE_ADDR                                               
20000123  AppTaskId                                                       
20000134  pMacCbackQueryRetransmit                                        
20000138  pMacCbackCheckPending                                           
2000013c  macSem                                                          
20000194  macTask                                                         
200009e5  Main_assertReason                                               
200009e8  macUser0Cfg                                                     
200009fc  appTask                                                         
20000a4c  Main_user1Cfg                                                   
200010dc  cuiMultiMenu                                                    
20001204  menuBuff                                                        
200015b0  Cllc_events                                                     
200015b2  Cllc_devShortAddr                                               
20001604  Cllc_statistics                                                 
2000168c  Cllc_associatedDevList                                          
200018e5  savedCllcState                                                  
200018e6  permitJoining                                                   
200018ec  Csf_events                                                      
2000191c  collectorStatusLine                                             
20001920  deviceStatusLine                                                
20001924  numJoinDevStatusLine                                            
20001928  genericStatusLine                                               
2000192c  Csf_keys                                                        
20001940  csfCuiHndl                                                      
20001a98  RF_cmdNop                                                       
20001aa8  RF_cmdNopFg                                                     
20001ab8  RF_cmdRxAckCmd                                                  
20001acc  RF_cmdFsRx                                                      
20001ae4  RF_cmdFsTx                                                      
20001afc  RF_cmdIEEETx                                                    
20001b14  RF_cmdPropCs                                                    
20001b30  RF_cmdPropCsSlotted                                             
20001b4c  RF_cmdRadioSetup                                                
20001b6c  RF_cmdIEEECsma                                                  
20001b8c  RF_cmdPropTxAdv                                                 
20001bac  RF_cmdPropRadioDivSetup                                         
20001bdc  RF_cmdPropRxAdv                                                 
20001c0c  RF_cmdIEEERx                                                    
20001c48  taskCnt                                                         
20001c58  heapmgrMemFreeTotal                                             
20001c5c  heapmgrMemFreeError                                             
20001c68  HEAPMGR_SIZE                                                    
20001c6c  taskTbl                                                         
20001dd4  PowerCC26X2_module                                              
20001f44  ROM_stateStruct                                                 
20001f44  ti_sysbios_knl_Clock_Module__state__V                           
20001f70  ti_sysbios_family_arm_cc26xx_TimestampProvider_Module__state__V 
20001f74  xdc_runtime_Startup_Module__state__V                            
20001f7c  xdc_runtime_Registry_Module__state__V                           
20001f84  ti_sysbios_BIOS_Module__state__V                                
20001fa8  ti_sysbios_knl_Swi_Module__state__V                             
20001fc4  ti_sysbios_knl_Task_Module__state__V                            
20002008  xdc_runtime_Memory_Module__state__V                             
2000200c  xdc_runtime_System_Module__state__V                             
20002014  ti_sysbios_family_arm_m3_Hwi_Module__state__V                   
20002048  ti_sysbios_family_arm_cc26xx_Timer_Module__state__V             
20002056  Collector_events                                                
20002090  Collector_statistics                                            
200020cc  Collector_macCallbacks                                          
20002114  macSrcMatchIsAckAllPending                                      
20002115  macSrcResIndex                                                  
20002118  reqAccessAlloc                                                  
2000211a  rxCmdHandle                                                     
20002120  macRfDrvTblPtr                                                  
20002124  lastPostCmd                                                     
20002128  macSfdDetectCback                                               
2000212c  macTxTimestamp                                                  
20002130  pMacRadioConfig                                                 
20002148  macRxOutputSubG                                                 
20002154  macRxOutputIeee                                                 
20002164  macFrmFilter                                                    
20002174  macSrcShortAddrList                                             
20002190  macSrcExtAddrList                                               
200021c0  macMRFSKGenPhyTable                                             
20002262  gAction                                                         
20002263  NVOCMP_size                                                     
20002290  NVOCMP_nvHandle                                                 
200022d8  RF_prop_2gfsk50kbps154g                                         
200022e8  txPowerTable_868_pa13                                           
2000234c  fhObject                                                        
200023b8  appSubMenu                                                      
20002410  FHIE_channelPlan                                                
20002464  ti_sysbios_knl_Task_Object__table__V                            
200024b0  ti_sysbios_family_arm_cc26xx_Timer_Object__table__V             
20002500  pRfMode                                                         
20002504  pRfPowerTable                                                   
20002508  pMaxPower                                                       
2000250c  RF_handle                                                       
20002510  macPhyTxPower                                                   
20002518  RF_params                                                       
20002538  commissionSubMenu                                               
20002578  configureSubMenu                                                
200025b8  csfMainMenu                                                     
200025f8  ti_sysbios_gates_GateMutex_Object__table__V                     
20002631  appTaskId                                                       
20002638  appEvents                                                       
20002640  ApiMac_extAddr                                                  
20002648  appSem                                                          
20002664  macBeaconPayload                                                
20002698  pMacDataTx                                                      
2000269c  macDataTxIndirect                                               
200026a0  macDataRequeueIndirect                                          
200026a4  macDataRxBeaconCritical                                         
200026a8  macDataTxBeaconComplete                                         
200026ac  macDataSetSched                                                 
200026b0  macDataCheckSched                                               
200026b4  macDataCheckTxTime                                              
200026b8  macDataBeaconRequeue                                            
200026bc  csmPhy                                                          
200026c0  macTimerRollover                                                
200026c4  macTimerNewRollover                                             
200026c8  ti_sysbios_knl_Swi_Module_State_0_readyQ__A                     
200026f8  ti_sysbios_knl_Swi_Object__table__V                             
20002728  ti_sysbios_knl_Task_Module_State_0_readyQ__A                    
20002758  macSpecUsecsPerSymbol                                           
2000275c  macPrevPeriodRatCount                                           
20002760  macSymbolTimerRollover                                          
20002764  macSymbolTimerTrigger                                           
20002780  pOverrides_2gfsk50kbps154g                                      
200027a8  macTxSlottedDelayFactor                                         
200027a9  macTxType                                                       
200027aa  macTxBe                                                         
200027ab  macTxGpInterframeDelay                                          
200027ac  txAckReq                                                        
200027af  txSeqn                                                          
200027b1  numTx                                                           
200027b2  macTxCsmaBackoffDelay                                           
200027b4  macCsmaRtcTimerId                                               
200027b8  macAckDbg                                                       
200027cc  _hposcCoeffs                                                    
200027f0  macActionSet                                                    
20002838  macBeaconMargin                                                 
20002858  ti_sysbios_knl_Clock_Object__table__V                           
20002878  xdc_runtime_Error_IgnoreBlock                                   
20002898  ti_sysbios_family_arm_m3_Hwi_Object__table__V                   
200028b0  txCmdHandle                                                     
200028b2  macRadioAckIeeeFrame                                            
200028b8  pMacEnhancedAck                                                 
200028bc  macRadioAckFrame                                                
200028c4  macStateTbl                                                     
200028e8  gpioCallbackFunctions                                           
200028f8  gpioPinConfigs                                                  
20002908  macCfg                                                          
20002918  lastRatChanA                                                    
20002919  lastRatChanB                                                    
2000291a  macRxCmdActive                                                  
2000291b  macTxCmdActive                                                  
2000291c  macFsCmdActive                                                  
2000291d  macRxPreempted                                                  
2000291e  macReqAccessCnt                                                 
20002920  macReqAccessTimeCnt                                             
20002922  macReqAccErrCnt                                                 
20002924  numRfCmd                                                        
20002925  numRxCmd                                                        
20002926  numRxPostCmd                                                    
20002930  pClockHandleEDScan                                              
20002934  FH_FSM                                                          
20002940  ti_sysbios_heaps_HeapCallback_Object__table__V                  
2000294c  _lock                                                           
20002950  _unlock                                                         
20002954  FH_txTiming                                                     
2000295c  pinUpperBound                                                   
20002960  pinLowerBound                                                   
2000296c  ti_sysbios_family_arm_m3_Hwi_Module__root__V                    
20002974  ti_sysbios_gates_GateHwi_Module__root__V                        
2000297c  ti_sysbios_gates_GateMutexPri_Module__root__V                   
20002984  ti_sysbios_gates_GateMutex_Module__root__V                      
2000298c  ti_sysbios_hal_Hwi_Module__root__V                              
20002994  ti_sysbios_heaps_HeapCallback_Module__root__V                   
2000299c  ti_sysbios_heaps_HeapMem_Module__root__V                        
200029a4  ti_sysbios_knl_Clock_Module__root__V                            
200029ac  ti_sysbios_knl_Event_Module__root__V                            
200029b4  ti_sysbios_knl_Mailbox_Module__root__V                          
200029bc  ti_sysbios_knl_Queue_Module__root__V                            
200029c4  ti_sysbios_knl_Semaphore_Module__root__V                        
200029cc  ti_sysbios_knl_Swi_Module__root__V                              
200029d4  ti_sysbios_knl_Task_Module__root__V                             
200029e7  macAddrSize                                                     
200029ec  macTasksEvents                                                  
200029f0  macTxSlottedDelay                                               
200029f1  bInSwi                                                          
200029f2  macSrcMatchIsEnabled                                            
200029f3  macRadioYielded                                                 
200029f4  errno                                                           
200029f8  main_func_sp                                                    
200029fc  ti_sysbios_family_arm_m3_Hwi_Module_State_0_excContext__A       
20002a00  ti_sysbios_family_arm_m3_Hwi_Module_State_0_excStack__A         
20002a04  ti_sysbios_knl_Task_Module_State_0_idleTask__A                  
20002a08  CryptoResourceCC26XX_pollingFlag                                
20002a0c  ti_sysbios_family_arm_m3_Hwi_Module_State_0_excActive__A        
20002a0f  macSleepState                                                   
20002f08  ti_sysbios_knl_Task_Instance_State_0_stack__A                   
20003108  uartCC26XXObjects                                               
200032bc  enhancedAckBuf                                                  
200034b0  ti_sysbios_family_arm_m3_Hwi_dispatchTable                      
20003588  LEDObjects                                                      
20003640  FHPIB_db                                                        
200036cc  FH_hnd                                                          
20003754  macPib                                                          
200037dc  pinHandleTable                                                  
20003858  FHNT_tableOpt                                                   
200038d4  macScan                                                         
20003978  ButtonObjects                                                   
200039c8  CryptoResourceCC26XX_accessSemaphore                            
20003a18  CryptoResourceCC26XX_operationSemaphore                         
20003a68  cuiMultiMenuData                                                
20003ab4  FHFSM_Dbg                                                       
20003af6  driverlib_release_0_58048                                       
20003af7  macMgmt                                                         
20003af8  macSecurityPib                                                  
20003b38  macBeaconCoord                                                  
20003b74  FHNT_hnd                                                        
20003bac  macDeviceAction1                                                
20003c18  macBeaconDevice                                                 
20003c4c  macMgmtAction1                                                  
20003c7c  macCoord                                                        
20003ca8  macDevice                                                       
20003cd4  macRxFilter                                                     
20003cd5  rxPromiscuousMode                                               
20003cd8  rxSeqNum                                                        
20003ce0  macRxDataEntryOffset                                            
20003ce4  rxRadioBufferPtr                                                
20003cf4  macRxDataEntryQueue                                             
20003d5c  macBeacon                                                       
20003dd0  CryptoResourceCC26XX_hwi                                        
20003dec  macCoordAction2                                                 
20003e08  macReset                                                        
20003e24  aesccmCC26XXObjects                                             
20003e3c  macScanAction                                                   
20003e7c  macDeviceAction2                                                
20003e90  macMgmtAction2                                                  
20003ea4  macBeaconDeviceAction                                           
20003eb4  macCoordAction3                                                 
20003ec4  macData                                                         
20003ed4  macDataTxDelay                                                  
20003efc  FH_PibTbl                                                       
20003f08  macMain                                                         
20003f24  FHNT_tempTable                                                  
20003f2c  macBeaconCoordAction1                                           
20003f34  macCoordAction1                                                 
20003f3c  FHNT_Dbg                                                        
20003f42  macPanCoordinator                                               
20003f43  macPhyChannel                                                   
20003f48  AESCCM_handle                                                   
20003f4c  FH_test_var                                                     
20003f50  PowerCC26XX_swiKey                                              
20003f54  PowerCC26XX_taskKey                                             
20003f58  macCryptoDrvTblPtr                                              
20003f5c  macRxSymbol                                                     
20003f60  macTimerActive                                                  
20003f64  nvsCC26XXObjects                                                
20003f68  timerAlignedQ                                                   
20003f6c  timerUnalignedQ                                                 
20003f70  macPwr                                                          
20003f71  macRxActive                                                     
20003f72  macRxEnableFlags                                                
20003f73  macRxOutgoingAckFlag                                            
20003f74  macSymbolTimerImpending                                         
20003f75  macTaskId                                                       
20003f76  macTxActive                                                     
20003f77  macUnitBackoffPeriod                                            
20003f78  rxFhRsl                                                         
20003f79  heapStart                                                       
20013aa0  __stack                                                         
20013aa0  heapEnd                                                         
20014000  __STACK_END                                                     
20014000  __STACK_TOP                                                     
e000e000  ti_sysbios_family_arm_m3_Hwi_nvic                               
ffffffff  __TI_pprof_out_hndl                                             
ffffffff  __TI_prof_data_size                                             
ffffffff  __TI_prof_data_start                                            
ffffffff  __binit__                                                       
ffffffff  __c_args__                                                      
ffffffff  binit                                                           
UNDEFED   ITM_flush                                                       
UNDEFED   ITM_restore                                                     
UNDEFED   PWM_config                                                      
UNDEFED   PWM_count                                                       
UNDEFED   SHT$$INIT_ARRAY$$Base                                           
UNDEFED   SHT$$INIT_ARRAY$$Limit                                          

[1884 symbols]
